
WE_GO_AGAIN_AGAIN_AGAIN.elf:     file format elf32-littlenios2
WE_GO_AGAIN_AGAIN_AGAIN.elf
architecture: nios2:r1, flags 0x00000112:
EXEC_P, HAS_SYMS, D_PAGED
start address 0x00040224

Program Header:
    LOAD off    0x00001000 vaddr 0x00040000 paddr 0x00040000 align 2**12
         filesz 0x00000020 memsz 0x00000020 flags r-x
    LOAD off    0x00001020 vaddr 0x00040020 paddr 0x00040020 align 2**12
         filesz 0x00010b78 memsz 0x00010b78 flags r-x
    LOAD off    0x00011b98 vaddr 0x00050b98 paddr 0x00052470 align 2**12
         filesz 0x000018d8 memsz 0x000018d8 flags rw-
    LOAD off    0x00000d48 vaddr 0x00053d48 paddr 0x00053d48 align 2**12
         filesz 0x00000000 memsz 0x0000042c flags rw-

Sections:
Idx Name          Size      VMA       LMA       File off  Algn
  0 .entry        00000020  00040000  00040000  00001000  2**5
                  CONTENTS, ALLOC, LOAD, READONLY, CODE
  1 .exceptions   00000204  00040020  00040020  00001020  2**2
                  CONTENTS, ALLOC, LOAD, READONLY, CODE
  2 .text         000102ec  00040224  00040224  00001224  2**2
                  CONTENTS, ALLOC, LOAD, READONLY, CODE
  3 .rodata       00000688  00050510  00050510  00011510  2**2
                  CONTENTS, ALLOC, LOAD, READONLY, DATA
  4 .rwdata       000018d8  00050b98  00052470  00011b98  2**2
                  CONTENTS, ALLOC, LOAD, DATA, SMALL_DATA
  5 .bss          0000042c  00053d48  00053d48  00013d48  2**2
                  ALLOC, SMALL_DATA
  6 .ram          00000000  00054174  00054174  00013470  2**0
                  CONTENTS
  7 .comment      0000002d  00000000  00000000  00013470  2**0
                  CONTENTS, READONLY
  8 .debug_aranges 00001070  00000000  00000000  000134a0  2**3
                  CONTENTS, READONLY, DEBUGGING, OCTETS
  9 .debug_info   0002814b  00000000  00000000  00014510  2**0
                  CONTENTS, READONLY, DEBUGGING, OCTETS
 10 .debug_abbrev 0000b308  00000000  00000000  0003c65b  2**0
                  CONTENTS, READONLY, DEBUGGING, OCTETS
 11 .debug_line   000112d9  00000000  00000000  00047963  2**0
                  CONTENTS, READONLY, DEBUGGING, OCTETS
 12 .debug_frame  00002480  00000000  00000000  00058c3c  2**2
                  CONTENTS, READONLY, DEBUGGING, OCTETS
 13 .debug_str    000027f3  00000000  00000000  0005b0bc  2**0
                  CONTENTS, READONLY, DEBUGGING, OCTETS
 14 .debug_alt_sim_info 00000010  00000000  00000000  0005d8b0  2**2
                  CONTENTS, READONLY, DEBUGGING, OCTETS
 15 .debug_ranges 00000070  00000000  00000000  0005d8c0  2**3
                  CONTENTS, READONLY, DEBUGGING, OCTETS
 16 .debug_line_str 00001d78  00000000  00000000  0005d930  2**0
                  CONTENTS, READONLY, DEBUGGING, OCTETS
 17 .debug_loclists 0001511b  00000000  00000000  0005f6a8  2**0
                  CONTENTS, READONLY, DEBUGGING, OCTETS
 18 .debug_rnglists 000017dd  00000000  00000000  000747c3  2**0
                  CONTENTS, READONLY, DEBUGGING, OCTETS
 19 .thread_model 00000003  00000000  00000000  00079336  2**0
                  CONTENTS, READONLY
 20 .cpu          00000004  00000000  00000000  00079339  2**0
                  CONTENTS, READONLY
 21 .qsys         00000001  00000000  00000000  0007933d  2**0
                  CONTENTS, READONLY
 22 .simulation_enabled 00000001  00000000  00000000  0007933e  2**0
                  CONTENTS, READONLY
 23 .stderr_dev   00000004  00000000  00000000  0007933f  2**0
                  CONTENTS, READONLY
 24 .stdin_dev    00000004  00000000  00000000  00079343  2**0
                  CONTENTS, READONLY
 25 .stdout_dev   00000004  00000000  00000000  00079347  2**0
                  CONTENTS, READONLY
 26 .sopc_system_name 00000006  00000000  00000000  0007934b  2**0
                  CONTENTS, READONLY
 27 .quartus_project_dir 0000003a  00000000  00000000  00079351  2**0
                  CONTENTS, READONLY
 28 .jdi          00004334  00000000  00000000  0007938b  2**0
                  CONTENTS, READONLY
 29 .sopcinfo     0003d59d  00000000  00000000  0007d6bf  2**0
                  CONTENTS, READONLY
SYMBOL TABLE:
00040000 l    d  .entry	00000000 .entry
00040020 l    d  .exceptions	00000000 .exceptions
00040224 l    d  .text	00000000 .text
00050510 l    d  .rodata	00000000 .rodata
00050b98 l    d  .rwdata	00000000 .rwdata
00053d48 l    d  .bss	00000000 .bss
00054174 l    d  .ram	00000000 .ram
00000000 l    d  .comment	00000000 .comment
00000000 l    d  .debug_aranges	00000000 .debug_aranges
00000000 l    d  .debug_info	00000000 .debug_info
00000000 l    d  .debug_abbrev	00000000 .debug_abbrev
00000000 l    d  .debug_line	00000000 .debug_line
00000000 l    d  .debug_frame	00000000 .debug_frame
00000000 l    d  .debug_str	00000000 .debug_str
00000000 l    d  .debug_alt_sim_info	00000000 .debug_alt_sim_info
00000000 l    d  .debug_ranges	00000000 .debug_ranges
00000000 l    d  .debug_line_str	00000000 .debug_line_str
00000000 l    d  .debug_loclists	00000000 .debug_loclists
00000000 l    d  .debug_rnglists	00000000 .debug_rnglists
00000000 l    df *ABS*	00000000 crt0.o
0004025c l       .text	00000000 alt_after_alt_main
00000000 l    df *ABS*	00000000 alt_irq_handler.c
00000000 l    df *ABS*	00000000 alt_instruction_exception_entry.c
00000000 l    df *ABS*	00000000 hello_world.c
00000000 l    df *ABS*	00000000 adddf3.c
00000000 l    df *ABS*	00000000 divdf3.c
00000000 l    df *ABS*	00000000 floatsidf.c
00000000 l    df *ABS*	00000000 extendsfdf2.c
00000000 l    df *ABS*	00000000 truncdfsf2.c
00000000 l    df *ABS*	00000000 libgcc2.c
00000000 l    df *ABS*	00000000 lib2-divmod.c
00000000 l    df *ABS*	00000000 lib2-mul.c
00000000 l    df *ABS*	00000000 libgcc2.c
00000000 l    df *ABS*	00000000 printf.c
00000000 l    df *ABS*	00000000 impure.c
00000000 l    df *ABS*	00000000 vfprintf.c
000506a8 l     O .rodata	00000010 zeroes.0
00044224 l     F .text	000000c4 __sbprintf
000506b8 l     O .rodata	00000010 blanks.1
00000000 l    df *ABS*	00000000 vfiprintf.c
000442e8 l     F .text	000000f4 __sprint_r.part.0
000506c8 l     O .rodata	00000010 zeroes.0
000456ac l     F .text	000000c4 __sbprintf
000506d8 l     O .rodata	00000010 blanks.1
00000000 l    df *ABS*	00000000 fflush.c
00000000 l    df *ABS*	00000000 findfp.c
00045a60 l     F .text	00000008 __fp_lock
00045a68 l     F .text	0000001c stdio_exit_handler
00045a84 l     F .text	00000070 cleanup_stdio
00045af4 l     F .text	00000008 __fp_unlock
00045afc l     F .text	00000174 global_stdio_init.part.0
00000000 l    df *ABS*	00000000 fvwrite.c
00000000 l    df *ABS*	00000000 fwalk.c
00000000 l    df *ABS*	00000000 stdio.c
00000000 l    df *ABS*	00000000 wsetup.c
00000000 l    df *ABS*	00000000 fputwc.c
00000000 l    df *ABS*	00000000 memchr.c
00000000 l    df *ABS*	00000000 memcpy.c
00000000 l    df *ABS*	00000000 memmove.c
00000000 l    df *ABS*	00000000 memset.c
00000000 l    df *ABS*	00000000 strlen.c
00000000 l    df *ABS*	00000000 locale.c
00000000 l    df *ABS*	00000000 localeconv.c
00000000 l    df *ABS*	00000000 closer.c
00000000 l    df *ABS*	00000000 reent.c
00000000 l    df *ABS*	00000000 lseekr.c
00000000 l    df *ABS*	00000000 readr.c
00000000 l    df *ABS*	00000000 writer.c
00000000 l    df *ABS*	00000000 dtoa.c
00047028 l     F .text	00000218 quorem
00000000 l    df *ABS*	00000000 exit.c
00000000 l    df *ABS*	00000000 freer.c
00000000 l    df *ABS*	00000000 mallocr.c
00000000 l    df *ABS*	00000000 mbtowc_r.c
00000000 l    df *ABS*	00000000 mprec.c
0005078c l     O .rodata	0000000c p05.0
00000000 l    df *ABS*	00000000 reallocr.c
00000000 l    df *ABS*	00000000 wctomb_r.c
00000000 l    df *ABS*	00000000 wcrtomb.c
00000000 l    df *ABS*	00000000 ctype_.c
00000000 l    df *ABS*	00000000 fclose.c
00000000 l    df *ABS*	00000000 makebuf.c
00000000 l    df *ABS*	00000000 wbuf.c
00000000 l    df *ABS*	00000000 strcmp.c
00000000 l    df *ABS*	00000000 fstatr.c
00000000 l    df *ABS*	00000000 isattyr.c
00000000 l    df *ABS*	00000000 sbrkr.c
00000000 l    df *ABS*	00000000 __call_atexit.c
00000000 l    df *ABS*	00000000 assert.c
00000000 l    df *ABS*	00000000 callocr.c
00000000 l    df *ABS*	00000000 fiprintf.c
00000000 l    df *ABS*	00000000 vfiprintfr_1.c
00000000 l    df *ABS*	00000000 errno.c
00000000 l    df *ABS*	00000000 abort.c
00000000 l    df *ABS*	00000000 signal.c
00000000 l    df *ABS*	00000000 signalr.c
00000000 l    df *ABS*	00000000 libgcc2.c
00000000 l    df *ABS*	00000000 libgcc2.c
00000000 l    df *ABS*	00000000 eqdf2.c
00000000 l    df *ABS*	00000000 gedf2.c
00000000 l    df *ABS*	00000000 ledf2.c
00000000 l    df *ABS*	00000000 muldf3.c
00000000 l    df *ABS*	00000000 subdf3.c
00000000 l    df *ABS*	00000000 unorddf2.c
00000000 l    df *ABS*	00000000 fixdfsi.c
00000000 l    df *ABS*	00000000 floatunsidf.c
00000000 l    df *ABS*	00000000 alt_close.c
0004df28 l     F .text	0000003c alt_get_errno
00000000 l    df *ABS*	00000000 alt_dev.c
0004e040 l     F .text	0000002c alt_dev_null_write
00000000 l    df *ABS*	00000000 alt_errno.c
00000000 l    df *ABS*	00000000 alt_exit.c
00000000 l    df *ABS*	00000000 alt_fstat.c
0004e0a8 l     F .text	0000003c alt_get_errno
00000000 l    df *ABS*	00000000 alt_getpid.c
00000000 l    df *ABS*	00000000 alt_isatty.c
0004e1c0 l     F .text	0000003c alt_get_errno
00000000 l    df *ABS*	00000000 alt_kill.c
0004e2ac l     F .text	0000003c alt_get_errno
00000000 l    df *ABS*	00000000 alt_load.c
0004e3d8 l     F .text	00000068 alt_load_section
00000000 l    df *ABS*	00000000 alt_lseek.c
0004e4c4 l     F .text	0000003c alt_get_errno
00000000 l    df *ABS*	00000000 alt_main.c
00000000 l    df *ABS*	00000000 alt_malloc_lock.c
00000000 l    df *ABS*	00000000 alt_read.c
0004e6a4 l     F .text	0000003c alt_get_errno
00000000 l    df *ABS*	00000000 alt_release_fd.c
00000000 l    df *ABS*	00000000 alt_sbrk.c
00052460 l     O .rwdata	00000004 heap_end
00000000 l    df *ABS*	00000000 alt_write.c
0004e910 l     F .text	0000003c alt_get_errno
00000000 l    df *ABS*	00000000 alt_sys_init.c
0004ea50 l     F .text	00000034 alt_dev_reg
000513dc l     O .rwdata	00001060 jtag
00000000 l    df *ABS*	00000000 altera_avalon_jtag_uart_fd.c
00000000 l    df *ABS*	00000000 altera_avalon_jtag_uart_init.c
0004ed2c l     F .text	00000214 altera_avalon_jtag_uart_irq
0004ef40 l     F .text	000000a8 altera_avalon_jtag_uart_timeout
00000000 l    df *ABS*	00000000 altera_avalon_jtag_uart_ioctl.c
00000000 l    df *ABS*	00000000 altera_avalon_jtag_uart_read.c
00000000 l    df *ABS*	00000000 altera_avalon_jtag_uart_write.c
00000000 l    df *ABS*	00000000 alt_alarm_start.c
00000000 l    df *ABS*	00000000 alt_dcache_flush_all.c
00000000 l    df *ABS*	00000000 alt_dev_llist_insert.c
0004f70c l     F .text	0000003c alt_get_errno
00000000 l    df *ABS*	00000000 alt_do_ctors.c
00000000 l    df *ABS*	00000000 alt_do_dtors.c
00000000 l    df *ABS*	00000000 alt_icache_flush_all.c
00000000 l    df *ABS*	00000000 alt_iic.c
00000000 l    df *ABS*	00000000 alt_iic_isr_register.c
00000000 l    df *ABS*	00000000 alt_io_redirect.c
0004fb70 l     F .text	000000d4 alt_open_fd
00000000 l    df *ABS*	00000000 alt_irq_vars.c
00000000 l    df *ABS*	00000000 alt_open.c
0004fcc0 l     F .text	0000003c alt_get_errno
0004fcfc l     F .text	000000dc alt_file_locked
00000000 l    df *ABS*	00000000 alt_tick.c
00000000 l    df *ABS*	00000000 altera_nios2_gen2_irq.c
00000000 l    df *ABS*	00000000 alt_find_dev.c
00000000 l    df *ABS*	00000000 alt_find_file.c
00000000 l    df *ABS*	00000000 alt_get_fd.c
00000000 l    df *ABS*	00000000 atexit.c
00000000 l    df *ABS*	00000000 memcmp.c
00000000 l    df *ABS*	00000000 __atexit.c
00053d80 g     O .bss	00000004 alt_instruction_exception_handler
0004a718 g     F .text	00000070 _mprec_log10
0004a7f4 g     F .text	00000060 __any_on
0004b51c g     F .text	00000058 _isatty_r
00050798 g     O .rodata	00000028 __mprec_tinytens
0004e5e0 g     F .text	0000007c alt_main
00053ee4 g     O .bss	00000100 alt_irq
00046efc g     F .text	00000064 _lseek_r
00052470 g       *ABS*	00000000 __flash_rwdata_start
0004c998 g     F .text	00000094 .hidden __eqdf2
00054174 g       *ABS*	00000000 __alt_heap_start
0004be00 g     F .text	00000060 _kill_r
00041e4c g     F .text	00000038 printf
0004ae7c g     F .text	0000006c _wcrtomb_r
0004b9a0 g     F .text	0000008c _signal_r
00046414 g     F .text	0000005c __sseek
00045d90 g     F .text	00000028 __sinit
0004b2a4 g     F .text	00000148 __swbuf_r
00046cb8 g     F .text	0000007c _setlocale_r
0004e680 g     F .text	00000024 __malloc_unlock
000469b8 g     F .text	00000128 memmove
0004969c g     F .text	000000a4 _Balloc
0004ca2c g     F .text	000000fc .hidden __gtdf2
00050108 g     F .text	00000024 altera_nios2_gen2_irq_init
0004b920 g     F .text	0000000c __errno
00040000 g     F .entry	0000000c __reset
00046dbc g     F .text	00000008 __localeconv_l
00053d50 g     O .bss	00000004 __stdio_exit_handler
00040020 g       *ABS*	00000000 __flash_exceptions_start
0004b4bc g     F .text	00000060 _fstat_r
00053d4c g     O .bss	00000004 errno
0004638c g     F .text	00000008 __seofread
00053d68 g     O .bss	00000004 alt_argv
0005a43c g       *ABS*	00000000 _gp
0004e1a0 g     F .text	00000020 getpid
0005125c g     O .rwdata	00000180 alt_fd_list
000405c0 g     F .text	0000007c get_single_slave_rtc
0005012c g     F .text	00000090 alt_find_dev
000468b8 g     F .text	00000100 memcpy
000418a8 g     F .text	000000b8 .hidden __floatsidf
0004fc44 g     F .text	0000007c alt_io_redirect
0004cb28 g     F .text	000000f8 .hidden __ltdf2
00050510 g       *ABS*	00000000 __DTOR_END__
0005037c g     F .text	00000074 alt_exception_cause_generated_bad_addr
0004a674 g     F .text	000000a4 __ratio
00045690 g     F .text	0000001c __vfiprintf_internal
0004f144 g     F .text	00000220 altera_avalon_jtag_uart_read
00041e1c g     F .text	00000030 _printf_r
00041d34 g     F .text	00000064 .hidden __udivsi3
0004e1fc g     F .text	000000b0 isatty
0004ba2c g     F .text	000000b0 _raise_r
0004b6e4 g     F .text	00000064 __assert_func
000507e8 g     O .rodata	000000c8 __mprec_tens
0004055c g     F .text	00000064 set_single_slave_rtc
00053d5c g     O .bss	00000004 __malloc_top_pad
0004be60 g     F .text	00000004 _getpid_r
00046dc4 g     F .text	0000000c _localeconv_r
00040000 g       *ABS*	00000000 __alt_mem_ram
00049b14 g     F .text	000000b0 __i2b
00045df0 g     F .text	000004a0 __sfvwrite_r
0004badc g     F .text	000000bc __sigtramp_r
0004b574 g     F .text	00000058 _sbrk_r
00046f60 g     F .text	00000064 _read_r
00052458 g     O .rwdata	00000004 alt_max_fd
0004af70 g     F .text	000000f0 _fclose_r
000459d4 g     F .text	0000008c fflush
00053d58 g     O .bss	00000004 __malloc_max_sbrked_mem
00041960 g     F .text	000000fc .hidden __extendsfdf2
000406b8 g     F .text	00000904 .hidden __adddf3
0004a41c g     F .text	00000100 __b2d
0004c43c g     F .text	0000055c .hidden __umoddi3
0004e500 g     F .text	000000e0 lseek
0004a854 g     F .text	000005ec _realloc_r
00054174 g       *ABS*	00000000 __bss_end
0004fa88 g     F .text	000000e8 alt_iic_isr_register
0004ffdc g     F .text	0000012c alt_tick
0004be64 g     F .text	000005d8 .hidden __udivdi3
00046720 g     F .text	00000024 _fputwc_r
000507c0 g     O .rodata	00000028 __mprec_bigtens
000498b8 g     F .text	00000138 __s2b
0004b92c g     F .text	00000018 abort
0004de98 g     F .text	00000090 .hidden __floatunsidf
0004a134 g     F .text	00000058 __mcmp
00045dc0 g     F .text	00000018 __fp_lock_all
0004fa3c g     F .text	0000004c alt_ic_irq_enabled
0004ff38 g     F .text	000000a4 alt_alarm_stop
00053d70 g     O .bss	00000004 alt_irq_active
000400fc g     F .exceptions	000000c8 alt_irq_handler
00051234 g     O .rwdata	00000028 alt_dev_null
00046e34 g     F .text	000000c8 _reclaim_reent
0004f6ec g     F .text	00000020 alt_dcache_flush_all
000499f0 g     F .text	00000074 __hi0bits
0004de18 g     F .text	00000080 .hidden __fixdfsi
00052470 g       *ABS*	00000000 __ram_rwdata_end
0004063c g     F .text	0000007c get_single_slave_reg
00053d84 g     O .bss	00000138 __sf
00052450 g     O .rwdata	00000008 alt_dev_list
0004e94c g     F .text	00000104 write
00050b98 g       *ABS*	00000000 __ram_rodata_end
0004e0e4 g     F .text	000000bc fstat
0004e2e8 g     F .text	000000f0 kill
0004cb28 g     F .text	000000f8 .hidden __ledf2
00049e6c g     F .text	00000140 __pow5mult
000443f4 g     F .text	0000129c ___vfiprintf_internal_r
00041d98 g     F .text	0000005c .hidden __umodsi3
00054174 g       *ABS*	00000000 end
0004ec6c g     F .text	000000c0 altera_avalon_jtag_uart_init
000401c4 g     F .exceptions	00000060 alt_instruction_exception_entry
00050510 g       *ABS*	00000000 __CTOR_LIST__
00080000 g       *ABS*	00000000 __alt_stack_pointer
00041bf0 g     F .text	00000050 .hidden __clzsi2
0004f364 g     F .text	00000228 altera_avalon_jtag_uart_write
00045db8 g     F .text	00000004 __sfp_lock_acquire
000467bc g     F .text	000000fc memchr
00041e84 g     F .text	00002384 ___vfprintf_internal_r
00048b7c g     F .text	00000308 _free_r
000509b4 g     O .rodata	00000180 _ctype_b
00046d34 g     F .text	0000000c __locale_mb_cur_max
0004b5cc g     F .text	00000118 __call_exitprocs
00053fe4 g     O .bss	00000190 __atexit0
00052440 g     O .rwdata	00000004 __malloc_sbrk_base
00040224 g     F .text	0000003c _start
00053d74 g     O .bss	00000004 _alt_tick_rate
00049fac g     F .text	00000188 __lshift
00053d78 g     O .bss	00000008 _alt_nticks
0004bc4c g     F .text	00000098 signal
0004e6e0 g     F .text	00000108 read
0004eac0 g     F .text	00000048 alt_sys_init
0005047c g     F .text	00000094 __register_exitproc
00049bc4 g     F .text	000002a8 __multiply
0004efe8 g     F .text	00000068 altera_avalon_jtag_uart_close
00041df4 g     F .text	00000028 .hidden __mulsi3
00050b98 g       *ABS*	00000000 __ram_rwdata_start
00050510 g       *ABS*	00000000 __ram_rodata_start
00053ebc g     O .bss	00000028 __malloc_current_mallinfo
0004a51c g     F .text	00000158 __d2b
0004eb08 g     F .text	00000060 altera_avalon_jtag_uart_read_fd
000502c4 g     F .text	000000b8 alt_get_fd
00046ddc g     F .text	00000058 _close_r
00050404 g     F .text	00000078 memcmp
0004ebc8 g     F .text	00000050 altera_avalon_jtag_uart_close_fd
00054174 g       *ABS*	00000000 __alt_stack_base
0004ec18 g     F .text	00000054 altera_avalon_jtag_uart_ioctl_fd
00046478 g     F .text	00000144 __swsetup_r
00040fbc g     F .text	000008ec .hidden __divdf3
00045c70 g     F .text	00000120 __sfp
0004a788 g     F .text	0000006c __copybits
00050e2c g     O .rwdata	00000408 __malloc_av_
00053d60 g     O .bss	00000004 __atexit
0004cc20 g     F .text	00000808 .hidden __muldf3
00046338 g     F .text	00000054 __sread
000501bc g     F .text	00000108 alt_find_file
0004f748 g     F .text	000000a8 alt_dev_llist_insert
0004e65c g     F .text	00000024 __malloc_lock
0004e858 g     F .text	000000b8 sbrk
00045978 g     F .text	0000005c _fflush_r
0004b75c g     F .text	00000168 _calloc_r
00053d48 g       *ABS*	00000000 __bss_start
00046ae0 g     F .text	00000140 memset
000402a8 g     F .text	00000240 main
00053d6c g     O .bss	00000004 alt_envp
00053d54 g     O .bss	00000004 __malloc_max_total_mem
0004eb68 g     F .text	00000060 altera_avalon_jtag_uart_write_fd
0004b3ec g     F .text	00000018 __swbuf
00046470 g     F .text	00000008 __sclose
00080000 g       *ABS*	00000000 __alt_heap_limit
0004b060 g     F .text	00000010 fclose
00041a5c g     F .text	00000194 .hidden __truncdfsf2
00047240 g     F .text	000017e8 _dtoa_r
00048e84 g     F .text	000007c8 _malloc_r
0004ae4c g     F .text	00000030 __ascii_wctomb
0005245c g     O .rwdata	00000004 alt_errno
0004b8c4 g     F .text	00000020 _fiprintf_r
0004bce4 g     F .text	00000060 _init_signal
0004964c g     F .text	0000000c _mbtowc_r
00041c40 g     F .text	00000080 .hidden __divsi3
00048a58 g     F .text	00000124 _malloc_trim_r
00050510 g       *ABS*	00000000 __CTOR_END__
0004b404 g     F .text	000000b8 strcmp
00050510 g       *ABS*	00000000 __flash_rodata_start
00050510 g       *ABS*	00000000 __DTOR_LIST__
00040260 g     F .text	00000048 delay
0004c998 g     F .text	00000094 .hidden __nedf2
0004ea84 g     F .text	0000003c alt_irq_init
0004e7e8 g     F .text	00000070 alt_release_fd
00050564 g     O .rodata	00000100 .hidden __clz_tab
00053d48 g     O .bss	00000004 _PathLocale
000503f0 g     F .text	00000014 atexit
00046fc4 g     F .text	00000064 _write_r
00046d40 g     F .text	0000007c setlocale
0005243c g     O .rwdata	00000004 _impure_ptr
00053d64 g     O .bss	00000004 alt_argc
00045770 g     F .text	00000208 __sflush_r
0004f854 g     F .text	00000064 _do_dtors
00046290 g     F .text	000000a8 _fwalk_sglue
00040020 g       .exceptions	00000000 alt_irq_entry
00049658 g     F .text	00000044 __ascii_mbtowc
0004a3bc g     F .text	00000060 __ulp
00045dd8 g     F .text	00000018 __fp_unlock_all
00052448 g     O .rwdata	00000008 alt_fs_list
00040020 g       *ABS*	00000000 __ram_exceptions_start
00046dd0 g     F .text	0000000c localeconv
0004b218 g     F .text	0000008c __swhatbuf_r
0004f8d8 g     F .text	00000050 alt_ic_isr_register
00050cb4 g     O .rwdata	0000000c __sglue
00052470 g       *ABS*	00000000 _edata
000404e8 g     F .text	00000074 set_single_slave_reg
00054174 g       *ABS*	00000000 _end
000465bc g     F .text	00000164 __fputwc
00040224 g       *ABS*	00000000 __ram_exceptions_end
0004f050 g     F .text	000000f4 altera_avalon_jtag_uart_ioctl
0004f9b0 g     F .text	0000008c alt_ic_irq_disable
00046394 g     F .text	00000080 __swrite
00052444 g     O .rwdata	00000004 __malloc_trim_threshold
00048a28 g     F .text	00000030 exit
0004b8e4 g     F .text	00000038 fiprintf
0004b91c g     F .text	00000004 _vfiprintf_r
0004a18c g     F .text	00000230 __mdiff
00041cc0 g     F .text	00000074 .hidden __modsi3
00050b98 g     O .rwdata	0000011c _impure_data
00080000 g       *ABS*	00000000 __alt_data_end
00040020 g     F .exceptions	00000000 alt_exception
00045dbc g     F .text	00000004 __sfp_lock_release
000508b0 g     O .rodata	00000101 _ctype_
0004ddc4 g     F .text	00000054 .hidden __unorddf2
0004e06c g     F .text	0000003c _exit
0004f58c g     F .text	00000160 alt_alarm_start
0004b070 g     F .text	000001a8 __smakebuf_r
00046c20 g     F .text	00000098 strlen
0004b944 g     F .text	0000005c _init_signal_r
0004fdd8 g     F .text	00000160 open
0004ca2c g     F .text	000000fc .hidden __gedf2
0004b748 g     F .text	00000014 __assert
000443dc g     F .text	00000018 __sprint_r
0004f8b8 g     F .text	00000020 alt_icache_flush_all
00052464 g     O .rwdata	00000004 alt_priority_mask
0004f928 g     F .text	00000088 alt_ic_irq_enable
00044208 g     F .text	0000001c __vfprintf_internal
0004ae40 g     F .text	0000000c _wctomb_r
0004d428 g     F .text	0000099c .hidden __subdf3
00049a64 g     F .text	000000b0 __lo0bits
00052468 g     O .rwdata	00000008 alt_alarm_list
0004f7f0 g     F .text	00000064 _do_ctors
0004bd44 g     F .text	000000bc __sigtramp
0004aee8 g     F .text	00000088 wcrtomb
0004df64 g     F .text	000000dc close
00050cc0 g     O .rwdata	0000016c __global_locale
0004e440 g     F .text	00000084 alt_load
00046744 g     F .text	00000078 fputwc
0004bb98 g     F .text	000000b4 raise
00049764 g     F .text	00000154 __multadd
00049740 g     F .text	00000024 _Bfree



Disassembly of section .entry:

00040000 <__reset>:
 * Jump to the _start entry point in the .text section if reset code
 * is allowed or if optimizing for RTL simulation.
 */
#if defined(ALT_ALLOW_CODE_AT_RESET) || defined(ALT_SIM_OPTIMIZE)
    /* Jump to the _start entry point in the .text section. */
    movhi r1, %hi(_start)
   40000:	00400134 	movhi	at,4
    ori r1, r1, %lo(_start)
   40004:	08408914 	ori	at,at,548
    jmp r1
   40008:	0800683a 	jmp	at
	...

Disassembly of section .exceptions:

00040020 <alt_exception>:

#else /* ALT_EXCEPTION_STACK disabled */
        /* 
         * Reserve space on normal stack for registers about to be pushed.
         */
        addi  sp, sp, -76
   40020:	deffed04 	addi	sp,sp,-76
         * documentation for details).
         *
         * Leave a gap in the stack frame at 4(sp) for the muldiv handler to
         * store zero into.
         */
        stw   ra,  0(sp)
   40024:	dfc00015 	stw	ra,0(sp)
        stw   r1,   8(sp)
   40028:	d8400215 	stw	at,8(sp)
        stw   r2,  12(sp)
   4002c:	d8800315 	stw	r2,12(sp)
        stw   r3,  16(sp)
   40030:	d8c00415 	stw	r3,16(sp)
        stw   r4,  20(sp)
   40034:	d9000515 	stw	r4,20(sp)
        stw   r5,  24(sp)
   40038:	d9400615 	stw	r5,24(sp)
        stw   r6,  28(sp)
   4003c:	d9800715 	stw	r6,28(sp)
        stw   r7,  32(sp)
   40040:	d9c00815 	stw	r7,32(sp)
        rdctl r5, estatus   /* Read early to avoid usage stall */
   40044:	000b307a 	rdctl	r5,estatus
        stw   r8,  36(sp)
   40048:	da000915 	stw	r8,36(sp)
        stw   r9,  40(sp)
   4004c:	da400a15 	stw	r9,40(sp)
        stw   r10, 44(sp)
   40050:	da800b15 	stw	r10,44(sp)
        stw   r11, 48(sp)
   40054:	dac00c15 	stw	r11,48(sp)
        stw   r12, 52(sp)
   40058:	db000d15 	stw	r12,52(sp)
        stw   r13, 56(sp)
   4005c:	db400e15 	stw	r13,56(sp)
        stw   r14, 60(sp)
   40060:	db800f15 	stw	r14,60(sp)
        stw   r15, 64(sp)
   40064:	dbc01015 	stw	r15,64(sp)
        /*
         * ea-4 contains the address of the instruction being executed
         * when the exception occured. For interrupt exceptions, we will
         * will be re-issue the isntruction. Store it in 72(sp)
         */
        stw   r5,  68(sp)  /* estatus */
   40068:	d9401115 	stw	r5,68(sp)
        addi  r15, ea, -4  /* instruction that caused exception */
   4006c:	ebffff04 	addi	r15,ea,-4
        stw   r15,  72(sp)
   40070:	dbc01215 	stw	r15,72(sp)
#else
        /*
         * Test to see if the exception was a software exception or caused 
         * by an external interrupt, and vector accordingly.
         */
        rdctl r4, ipending
   40074:	0009313a 	rdctl	r4,ipending
        andi  r2, r5, 1
   40078:	2880004c 	andi	r2,r5,1
        beq   r2, zero, .Lnot_irq
   4007c:	10000326 	beq	r2,zero,4008c <alt_exception+0x6c>
        beq   r4, zero, .Lnot_irq
   40080:	20000226 	beq	r4,zero,4008c <alt_exception+0x6c>
        /*
         * Now that all necessary registers have been preserved, call 
         * alt_irq_handler() to process the interrupts.
         */

        call alt_irq_handler
   40084:	00400fc0 	call	400fc <alt_irq_handler>

        .section .exceptions.irqreturn, "xa"

        br    .Lexception_exit
   40088:	00000706 	br	400a8 <alt_exception+0x88>
         * upon completion, so we write ea (address of instruction *after*
         * the one where the exception occured) into 72(sp). The actual
         * instruction that caused the exception is written in r2, which these
         * handlers will utilize.
         */
        stw ea, 72(sp) /* EA is PC+4 so will skip over instruction causing exception */
   4008c:	df401215 	stw	ea,72(sp)
.Lunknown_16bit:
        addi.n r4, r4, 2 /* Need PC+2 to skip over instruction causing exception */
        stw r4, 72(sp)

#else /* CDX is not Enabled and all instructions are 32bits */
        ldw r2, -4(ea) /* Instruction value that caused exception */
   40090:	e8bfff17 	ldw	r2,-4(ea)
   40094:	e93fff04 	addi	r4,ea,-4
   40098:	00401c40 	call	401c4 <alt_instruction_exception_entry>
   4009c:	1000021e 	bne	r2,zero,400a8 <alt_exception+0x88>
   400a0:	ebffff04 	addi	r15,ea,-4
   400a4:	dbc01215 	stw	r15,72(sp)
        /* 
         * Restore the saved registers, so that all general purpose registers 
         * have been restored to their state at the time the interrupt occured.
         */

        ldw   r5,  68(sp)
   400a8:	d9401117 	ldw	r5,68(sp)
        ldw   ea,  72(sp)  /* This becomes the PC once eret is executed */
   400ac:	df401217 	ldw	ea,72(sp)
        ldw   ra,   0(sp)
   400b0:	dfc00017 	ldw	ra,0(sp)

        wrctl estatus, r5
   400b4:	2801707a 	wrctl	estatus,r5

        ldw   r1,   8(sp)
   400b8:	d8400217 	ldw	at,8(sp)
        ldw   r2,  12(sp)
   400bc:	d8800317 	ldw	r2,12(sp)
        ldw   r3,  16(sp)
   400c0:	d8c00417 	ldw	r3,16(sp)
        ldw   r4,  20(sp)
   400c4:	d9000517 	ldw	r4,20(sp)
        ldw   r5,  24(sp)
   400c8:	d9400617 	ldw	r5,24(sp)
        ldw   r6,  28(sp)
   400cc:	d9800717 	ldw	r6,28(sp)
        ldw   r7,  32(sp)
   400d0:	d9c00817 	ldw	r7,32(sp)

#if defined(ALT_EXCEPTION_STACK) && defined(ALT_STACK_CHECK)
        ldw   et, %gprel(alt_exception_old_stack_limit)(gp)
#endif

        ldw   r8,  36(sp)
   400d4:	da000917 	ldw	r8,36(sp)
        ldw   r9,  40(sp)
   400d8:	da400a17 	ldw	r9,40(sp)
        ldw   r10, 44(sp)
   400dc:	da800b17 	ldw	r10,44(sp)
        ldw   r11, 48(sp)
   400e0:	dac00c17 	ldw	r11,48(sp)
        ldw   r12, 52(sp)
   400e4:	db000d17 	ldw	r12,52(sp)
        ldw   r13, 56(sp)
   400e8:	db400e17 	ldw	r13,56(sp)
        ldw   r14, 60(sp)
   400ec:	db800f17 	ldw	r14,60(sp)
        ldw   r15, 64(sp)
   400f0:	dbc01017 	ldw	r15,64(sp)
        stw   et, %gprel(alt_stack_limit_value)(gp)
        stw   zero, %gprel(alt_exception_old_stack_limit)(gp)
#endif /* ALT_STACK_CHECK */
        ldw   sp,  76(sp)
#else /* ALT_EXCEPTION_STACK disabled */
        addi  sp, sp, 76
   400f4:	dec01304 	addi	sp,sp,76

        /*
         * Return to the interrupted instruction.
         */

        eret
   400f8:	ef80083a 	eret

000400fc <alt_irq_handler>:
 * instruction is present if the macro ALT_CI_INTERRUPT_VECTOR defined.
 */

void alt_irq_handler (void) __attribute__ ((section (".exceptions")));
void alt_irq_handler (void)
{
   400fc:	defff904 	addi	sp,sp,-28
   40100:	dfc00615 	stw	ra,24(sp)
   40104:	df000515 	stw	fp,20(sp)
   40108:	df000504 	addi	fp,sp,20
  
  /*
   * Notify the operating system that we are at interrupt level.
   */ 
  
  ALT_OS_INT_ENTER();
   4010c:	0001883a 	nop
#ifndef NIOS2_EIC_PRESENT
static ALT_INLINE alt_u32 ALT_ALWAYS_INLINE alt_irq_pending (void)
{
  alt_u32 active;

  NIOS2_READ_IPENDING (active);
   40110:	0005313a 	rdctl	r2,ipending
   40114:	e0bffc15 	stw	r2,-16(fp)

  return active;
   40118:	e0bffc17 	ldw	r2,-16(fp)
   * Consider the case where the high priority interupt is asserted during
   * the interrupt entry sequence for a lower priority interrupt to see why
   * this is the case.
   */

  active = alt_irq_pending ();
   4011c:	e0bfff15 	stw	r2,-4(fp)

  do
  {
    i = 0;
   40120:	e03ffd15 	stw	zero,-12(fp)
    mask = 1;
   40124:	00800044 	movi	r2,1
   40128:	e0bffe15 	stw	r2,-8(fp)
     * called to clear the interrupt condition.
     */

    do
    {
      if (active & mask)
   4012c:	e0ffff17 	ldw	r3,-4(fp)
   40130:	e0bffe17 	ldw	r2,-8(fp)
   40134:	1884703a 	and	r2,r3,r2
   40138:	10001126 	beq	r2,zero,40180 <alt_irq_handler+0x84>
      { 
#ifdef ALT_ENHANCED_INTERRUPT_API_PRESENT
        alt_irq[i].handler(alt_irq[i].context); 
   4013c:	e0bffd17 	ldw	r2,-12(fp)
   40140:	100690fa 	slli	r3,r2,3
   40144:	00800174 	movhi	r2,5
   40148:	1885883a 	add	r2,r3,r2
   4014c:	10cfb917 	ldw	r3,16100(r2)
   40150:	e0bffd17 	ldw	r2,-12(fp)
   40154:	100890fa 	slli	r4,r2,3
   40158:	00800174 	movhi	r2,5
   4015c:	2085883a 	add	r2,r4,r2
   40160:	108fba17 	ldw	r2,16104(r2)
   40164:	1009883a 	mov	r4,r2
   40168:	183ee83a 	callr	r3
#else
        alt_irq[i].handler(alt_irq[i].context, i); 
#endif
        break;
   4016c:	0001883a 	nop
  NIOS2_READ_IPENDING (active);
   40170:	0005313a 	rdctl	r2,ipending
   40174:	e0bffb15 	stw	r2,-20(fp)
  return active;
   40178:	e0bffb17 	ldw	r2,-20(fp)
   4017c:	00000706 	br	4019c <alt_irq_handler+0xa0>
      }
      mask <<= 1;
   40180:	e0bffe17 	ldw	r2,-8(fp)
   40184:	1085883a 	add	r2,r2,r2
   40188:	e0bffe15 	stw	r2,-8(fp)
      i++;
   4018c:	e0bffd17 	ldw	r2,-12(fp)
   40190:	10800044 	addi	r2,r2,1
   40194:	e0bffd15 	stw	r2,-12(fp)
      if (active & mask)
   40198:	003fe406 	br	4012c <alt_irq_handler+0x30>

    } while (1);

    active = alt_irq_pending ();
   4019c:	e0bfff15 	stw	r2,-4(fp)
    
  } while (active);
   401a0:	e0bfff17 	ldw	r2,-4(fp)
   401a4:	103fde1e 	bne	r2,zero,40120 <alt_irq_handler+0x24>

  /*
   * Notify the operating system that interrupt processing is complete.
   */ 

  ALT_OS_INT_EXIT();
   401a8:	0001883a 	nop
}
   401ac:	0001883a 	nop
   401b0:	e037883a 	mov	sp,fp
   401b4:	dfc00117 	ldw	ra,4(sp)
   401b8:	df000017 	ldw	fp,0(sp)
   401bc:	dec00204 	addi	sp,sp,8
   401c0:	f800283a 	ret

000401c4 <alt_instruction_exception_entry>:
 * that handler if it has been registered. Absent a handler, it will
 * break break or hang as discussed below.
 */
int 
alt_instruction_exception_entry (alt_u32 exception_pc)
{
   401c4:	defffb04 	addi	sp,sp,-20
   401c8:	dfc00415 	stw	ra,16(sp)
   401cc:	df000315 	stw	fp,12(sp)
   401d0:	df000304 	addi	fp,sp,12
   401d4:	e13ffd15 	stw	r4,-12(fp)
  cause = ( (cause & NIOS2_EXCEPTION_REG_CAUSE_MASK) >>
              NIOS2_EXCEPTION_REG_CAUSE_OFST );

  NIOS2_READ_BADADDR(badaddr);
#else
  cause = NIOS2_EXCEPTION_CAUSE_NOT_PRESENT;
   401d8:	00bfffc4 	movi	r2,-1
   401dc:	e0bfff15 	stw	r2,-4(fp)
  badaddr = 0;
   401e0:	e03ffe15 	stw	zero,-8(fp)
#endif /* NIOS2_HAS_EXTRA_EXCEPTION_INFO */

  if(alt_instruction_exception_handler) {
   401e4:	d0a65117 	ldw	r2,-26300(gp)
   401e8:	10000726 	beq	r2,zero,40208 <alt_instruction_exception_entry+0x44>
     * Call handler. Its return value indicates whether the exception-causing
     * instruction should be re-issued. The code that called us,
     * alt_eceptions_entry.S, will look at this value and adjust the ea
     * register as necessary
     */
    return alt_instruction_exception_handler(cause, exception_pc, badaddr);
   401ec:	d0a65117 	ldw	r2,-26300(gp)
   401f0:	e0ffff17 	ldw	r3,-4(fp)
   401f4:	e1bffe17 	ldw	r6,-8(fp)
   401f8:	e17ffd17 	ldw	r5,-12(fp)
   401fc:	1809883a 	mov	r4,r3
   40200:	103ee83a 	callr	r2
   40204:	00000206 	br	40210 <alt_instruction_exception_entry+0x4c>
   *    (a peripheral which negates its interrupt output before its
   *    interrupt handler has been executed will cause spurious interrupts)
   */
  else {
#ifdef NIOS2_HAS_DEBUG_STUB
    NIOS2_BREAK();
   40208:	003da03a 	break	0
      ;
#endif /* NIOS2_HAS_DEBUG_STUB */
  }

  /* We should not get here. Remove compiler warning. */
  return NIOS2_EXCEPTION_RETURN_REISSUE_INST;
   4020c:	0005883a 	mov	r2,zero
}
   40210:	e037883a 	mov	sp,fp
   40214:	dfc00117 	ldw	ra,4(sp)
   40218:	df000017 	ldw	fp,0(sp)
   4021c:	dec00204 	addi	sp,sp,8
   40220:	f800283a 	ret

Disassembly of section .text:

00040224 <_start>:

    /*
     * Now that the caches are initialized, set up the stack pointer and global pointer.
     * The values provided by the linker are assumed to be correctly aligned.
     */
    movhi sp, %hi(__alt_stack_pointer)
   40224:	06c00234 	movhi	sp,8
    ori sp, sp, %lo(__alt_stack_pointer)
   40228:	dec00014 	ori	sp,sp,0
    movhi gp, %hi(_gp)
   4022c:	06800174 	movhi	gp,5
    ori gp, gp, %lo(_gp)
   40230:	d6a90f14 	ori	gp,gp,42044
 */
#ifndef ALT_SIM_OPTIMIZE
    /* Log that the BSS is about to be cleared. */
    ALT_LOG_PUTS(alt_log_msg_bss)

    movhi r2, %hi(__bss_start)
   40234:	00800174 	movhi	r2,5
    ori r2, r2, %lo(__bss_start)
   40238:	108f5214 	ori	r2,r2,15688

    movhi r3, %hi(__bss_end)
   4023c:	00c00174 	movhi	r3,5
    ori r3, r3, %lo(__bss_end)
   40240:	18d05d14 	ori	r3,r3,16756

    beq r2, r3, 1f
   40244:	10c00326 	beq	r2,r3,40254 <_start+0x30>

0:
    stw zero, (r2)
   40248:	10000015 	stw	zero,0(r2)
    addi r2, r2, 4
   4024c:	10800104 	addi	r2,r2,4
    bltu r2, r3, 0b
   40250:	10fffd36 	bltu	r2,r3,40248 <_start+0x24>
     * section aren't defined until alt_load() has been called).
     */
    mov   et, zero
#endif

    call alt_load
   40254:	004e4400 	call	4e440 <alt_load>

    /* Log that alt_main is about to be called. */
    ALT_LOG_PUTS(alt_log_msg_alt_main)

    /* Call the C entry point. It should never return. */
    call alt_main
   40258:	004e5e00 	call	4e5e0 <alt_main>

0004025c <alt_after_alt_main>:

    /* Wait in infinite loop in case alt_main does return. */
alt_after_alt_main:
    br alt_after_alt_main
   4025c:	003fff06 	br	4025c <alt_after_alt_main>

00040260 <delay>:
#define TFR_CMD_FIFO 4 * 4
#define RX_DATA_FIFO 5 * 4
#define OP_CNT 6 * 4

void delay(int value)
{
   40260:	defffd04 	addi	sp,sp,-12
   40264:	df000215 	stw	fp,8(sp)
   40268:	df000204 	addi	fp,sp,8
   4026c:	e13ffe15 	stw	r4,-8(fp)
    for (int i = 0; i < value; i++);
   40270:	e03fff15 	stw	zero,-4(fp)
   40274:	00000306 	br	40284 <delay+0x24>
   40278:	e0bfff17 	ldw	r2,-4(fp)
   4027c:	10800044 	addi	r2,r2,1
   40280:	e0bfff15 	stw	r2,-4(fp)
   40284:	e0ffff17 	ldw	r3,-4(fp)
   40288:	e0bffe17 	ldw	r2,-8(fp)
   4028c:	18bffa16 	blt	r3,r2,40278 <delay+0x18>
}
   40290:	0001883a 	nop
   40294:	0001883a 	nop
   40298:	e037883a 	mov	sp,fp
   4029c:	df000017 	ldw	fp,0(sp)
   402a0:	dec00104 	addi	sp,sp,4
   402a4:	f800283a 	ret

000402a8 <main>:
byte get_single_slave_rtc(byte reg);
void set_single_slave_rtc(byte reg, byte val);


int main()
{
   402a8:	defff604 	addi	sp,sp,-40
   402ac:	dfc00915 	stw	ra,36(sp)
   402b0:	df000815 	stw	fp,32(sp)
   402b4:	dc400715 	stw	r17,28(sp)
   402b8:	dc000615 	stw	r16,24(sp)
   402bc:	df000804 	addi	fp,sp,32
    unsigned int pass_amnt = 0;
   402c0:	e03ffb15 	stw	zero,-20(fp)
    //delay(1000000); // Wait for 1ms
    //enere = svar & 0x0f;
    //tiere = (svar >> 4) & 0x0f;
    //printf("RTC: %d:%d\n", tiere, enere);

    set_single_slave_rtc(SECONDS, 0x0); // Set seconds to 0
   402c4:	000b883a 	mov	r5,zero
   402c8:	0009883a 	mov	r4,zero
   402cc:	004055c0 	call	4055c <set_single_slave_rtc>
    set_single_slave_rtc(MINUTES, 0x15); // Set minutes to 5
   402d0:	01400544 	movi	r5,21
   402d4:	01000044 	movi	r4,1
   402d8:	004055c0 	call	4055c <set_single_slave_rtc>
    set_single_slave_rtc(HOURS, 0x14 | 0x40); // Set hours to 12
   402dc:	01401504 	movi	r5,84
   402e0:	01000084 	movi	r4,2
   402e4:	004055c0 	call	4055c <set_single_slave_rtc>

    set_single_slave_rtc(WEEKDAY, 0x2); // Set weekday to Monday
   402e8:	01400084 	movi	r5,2
   402ec:	010000c4 	movi	r4,3
   402f0:	004055c0 	call	4055c <set_single_slave_rtc>
    set_single_slave_rtc(DATE, 0x28); // Set date to 28th
   402f4:	01400a04 	movi	r5,40
   402f8:	01000104 	movi	r4,4
   402fc:	004055c0 	call	4055c <set_single_slave_rtc>
    set_single_slave_rtc(MONTH, 0x05); // Set month to May
   40300:	01400144 	movi	r5,5
   40304:	01000144 	movi	r4,5
   40308:	004055c0 	call	4055c <set_single_slave_rtc>
    set_single_slave_rtc(YEAR, 0x25); // Set year to 2025
   4030c:	01400944 	movi	r5,37
   40310:	01000184 	movi	r4,6
   40314:	004055c0 	call	4055c <set_single_slave_rtc>

    while ((0xF & IORD_32DIRECT(I2C_MASTER_BASE, TFR_CMD_FIFO)) != 0);
   40318:	0001883a 	nop
   4031c:	00800437 	ldwio	r2,16(zero)
   40320:	108003cc 	andi	r2,r2,15
   40324:	103ffd1e 	bne	r2,zero,4031c <main+0x74>

    while (1)
    {
        sek = get_single_slave_rtc(SECONDS); // Get seconds
   40328:	0009883a 	mov	r4,zero
   4032c:	00405c00 	call	405c0 <get_single_slave_rtc>
   40330:	e0bffac5 	stb	r2,-21(fp)
        if (sek != old_sek) // If seconds are the same, skip
   40334:	e0fffac3 	ldbu	r3,-21(fp)
   40338:	e0bffdc3 	ldbu	r2,-9(fp)
   4033c:	18bffa26 	beq	r3,r2,40328 <main+0x80>
        {
            old_sek = sek;
   40340:	e0bffac3 	ldbu	r2,-21(fp)
   40344:	e0bffdc5 	stb	r2,-9(fp)
            
            min = get_single_slave_rtc(MINUTES); // Get minutes
   40348:	01000044 	movi	r4,1
   4034c:	00405c00 	call	405c0 <get_single_slave_rtc>
   40350:	e0bffa85 	stb	r2,-22(fp)
            
            timer = get_single_slave_rtc(HOURS) & 0x3F; // Get hours
   40354:	01000084 	movi	r4,2
   40358:	00405c00 	call	405c0 <get_single_slave_rtc>
   4035c:	10800fcc 	andi	r2,r2,63
   40360:	e0bffa45 	stb	r2,-23(fp)

            weekday = get_single_slave_rtc(WEEKDAY); // Get weekday
   40364:	010000c4 	movi	r4,3
   40368:	00405c00 	call	405c0 <get_single_slave_rtc>
   4036c:	e0bffa05 	stb	r2,-24(fp)
            date = get_single_slave_rtc(DATE); // Get date
   40370:	01000104 	movi	r4,4
   40374:	00405c00 	call	405c0 <get_single_slave_rtc>
   40378:	e0bff9c5 	stb	r2,-25(fp)
            month = get_single_slave_rtc(MONTH) & 0x1F; // Get month
   4037c:	01000144 	movi	r4,5
   40380:	00405c00 	call	405c0 <get_single_slave_rtc>
   40384:	108007cc 	andi	r2,r2,31
   40388:	e0bff985 	stb	r2,-26(fp)
            year = get_single_slave_rtc(YEAR); // Get year
   4038c:	01000184 	movi	r4,6
   40390:	00405c00 	call	405c0 <get_single_slave_rtc>
   40394:	e0bff945 	stb	r2,-27(fp)
    
            printf("TIME: %02x:%02x:%02x\n", timer, min & 0x7F, sek & 0x7F);
   40398:	e0fffa43 	ldbu	r3,-23(fp)
   4039c:	e0bffa83 	ldbu	r2,-22(fp)
   403a0:	11001fcc 	andi	r4,r2,127
   403a4:	e0bffac3 	ldbu	r2,-21(fp)
   403a8:	10801fcc 	andi	r2,r2,127
   403ac:	100f883a 	mov	r7,r2
   403b0:	200d883a 	mov	r6,r4
   403b4:	180b883a 	mov	r5,r3
   403b8:	01000174 	movhi	r4,5
   403bc:	21014404 	addi	r4,r4,1296
   403c0:	0041e4c0 	call	41e4c <printf>
            printf("DATE: %02x.%02x.%02x\n", date, month, year + 0x2000); // Print date
   403c4:	e0fff9c3 	ldbu	r3,-25(fp)
   403c8:	e13ff983 	ldbu	r4,-26(fp)
   403cc:	e0bff943 	ldbu	r2,-27(fp)
   403d0:	10880004 	addi	r2,r2,8192
   403d4:	100f883a 	mov	r7,r2
   403d8:	200d883a 	mov	r6,r4
   403dc:	180b883a 	mov	r5,r3
   403e0:	01000174 	movhi	r4,5
   403e4:	21014a04 	addi	r4,r4,1320
   403e8:	0041e4c0 	call	41e4c <printf>
            printf("WEEKDAY: %d\n", weekday); // Print weekday
   403ec:	e0bffa03 	ldbu	r2,-24(fp)
   403f0:	100b883a 	mov	r5,r2
   403f4:	01000174 	movhi	r4,5
   403f8:	21015004 	addi	r4,r4,1344
   403fc:	0041e4c0 	call	41e4c <printf>
              

            temp_high = get_single_slave_rtc(TEMP_HIGH); // Get high temperature byte
   40400:	01000444 	movi	r4,17
   40404:	00405c00 	call	405c0 <get_single_slave_rtc>
   40408:	e0bff905 	stb	r2,-28(fp)
            temp_low = get_single_slave_rtc(TEMP_LOW); // Get low temperature byte
   4040c:	01000484 	movi	r4,18
   40410:	00405c00 	call	405c0 <get_single_slave_rtc>
   40414:	e0bff8c5 	stb	r2,-29(fp)
            float temp = ((temp_high & 0x7F) + (temp_low / 256.0)); // Calculate temperature
   40418:	e0bff903 	ldbu	r2,-28(fp)
   4041c:	10801fcc 	andi	r2,r2,127
   40420:	1009883a 	mov	r4,r2
   40424:	00418a80 	call	418a8 <__floatsidf>
   40428:	1021883a 	mov	r16,r2
   4042c:	1823883a 	mov	r17,r3
   40430:	e0bff8c3 	ldbu	r2,-29(fp)
   40434:	1009883a 	mov	r4,r2
   40438:	00418a80 	call	418a8 <__floatsidf>
   4043c:	1011883a 	mov	r8,r2
   40440:	1813883a 	mov	r9,r3
   40444:	000d883a 	mov	r6,zero
   40448:	01d01c34 	movhi	r7,16496
   4044c:	4009883a 	mov	r4,r8
   40450:	480b883a 	mov	r5,r9
   40454:	0040fbc0 	call	40fbc <__divdf3>
   40458:	1009883a 	mov	r4,r2
   4045c:	180b883a 	mov	r5,r3
   40460:	2005883a 	mov	r2,r4
   40464:	2807883a 	mov	r3,r5
   40468:	100d883a 	mov	r6,r2
   4046c:	180f883a 	mov	r7,r3
   40470:	8009883a 	mov	r4,r16
   40474:	880b883a 	mov	r5,r17
   40478:	00406b80 	call	406b8 <__adddf3>
   4047c:	1009883a 	mov	r4,r2
   40480:	180b883a 	mov	r5,r3
   40484:	2005883a 	mov	r2,r4
   40488:	2807883a 	mov	r3,r5
   4048c:	1009883a 	mov	r4,r2
   40490:	180b883a 	mov	r5,r3
   40494:	0041a5c0 	call	41a5c <__truncdfsf2>
   40498:	1007883a 	mov	r3,r2
   4049c:	e0fffc15 	stw	r3,-16(fp)
            if (temp_high & 0x80) // If high byte is negative
   404a0:	e0bff903 	ldbu	r2,-28(fp)
   404a4:	10803fcc 	andi	r2,r2,255
   404a8:	1080201c 	xori	r2,r2,128
   404ac:	10bfe004 	addi	r2,r2,-128
   404b0:	1000030e 	bge	r2,zero,404c0 <main+0x218>
            {
                temp = -temp; // Make temperature negative
   404b4:	e0bffc17 	ldw	r2,-16(fp)
   404b8:	10a0003c 	xorhi	r2,r2,32768
   404bc:	e0bffc15 	stw	r2,-16(fp)
            }
            printf("RTC Temp: %.2f C\n\n", temp); // Print temperature
   404c0:	e13ffc17 	ldw	r4,-16(fp)
   404c4:	00419600 	call	41960 <__extendsfdf2>
   404c8:	100d883a 	mov	r6,r2
   404cc:	180f883a 	mov	r7,r3
   404d0:	300b883a 	mov	r5,r6
   404d4:	380d883a 	mov	r6,r7
   404d8:	01000174 	movhi	r4,5
   404dc:	21015404 	addi	r4,r4,1360
   404e0:	0041e4c0 	call	41e4c <printf>
        sek = get_single_slave_rtc(SECONDS); // Get seconds
   404e4:	003f9006 	br	40328 <main+0x80>

000404e8 <set_single_slave_reg>:
//printf("RTC: %d\n", svar);

}

void set_single_slave_reg(byte adr, byte reg, byte val)
{
   404e8:	defffc04 	addi	sp,sp,-16
   404ec:	df000315 	stw	fp,12(sp)
   404f0:	df000304 	addi	fp,sp,12
   404f4:	2005883a 	mov	r2,r4
   404f8:	2809883a 	mov	r4,r5
   404fc:	3007883a 	mov	r3,r6
   40500:	e0bfff05 	stb	r2,-4(fp)
   40504:	2005883a 	mov	r2,r4
   40508:	e0bffe05 	stb	r2,-8(fp)
   4050c:	1805883a 	mov	r2,r3
   40510:	e0bffd05 	stb	r2,-12(fp)
    IOWR_32DIRECT(I2C_MASTER_BASE, TFR_CMD, (adr<<1));
   40514:	e0bfff03 	ldbu	r2,-4(fp)
   40518:	1085883a 	add	r2,r2,r2
   4051c:	00800035 	stwio	r2,0(zero)
    IOWR_32DIRECT(I2C_MASTER_BASE, TFR_CMD, reg);
   40520:	e0bffe03 	ldbu	r2,-8(fp)
   40524:	00800035 	stwio	r2,0(zero)
    IOWR_32DIRECT(I2C_MASTER_BASE, TFR_CMD, val|STOP);
   40528:	e0bffd03 	ldbu	r2,-12(fp)
   4052c:	10804014 	ori	r2,r2,256
   40530:	00800035 	stwio	r2,0(zero)
    while ((0xF & IORD_32DIRECT(I2C_MASTER_BASE, TFR_CMD_FIFO)) != 0);
   40534:	0001883a 	nop
   40538:	00800437 	ldwio	r2,16(zero)
   4053c:	108003cc 	andi	r2,r2,15
   40540:	103ffd1e 	bne	r2,zero,40538 <set_single_slave_reg+0x50>
}
   40544:	0001883a 	nop
   40548:	0001883a 	nop
   4054c:	e037883a 	mov	sp,fp
   40550:	df000017 	ldw	fp,0(sp)
   40554:	dec00104 	addi	sp,sp,4
   40558:	f800283a 	ret

0004055c <set_single_slave_rtc>:

void set_single_slave_rtc(byte reg, byte val)
{
   4055c:	defffd04 	addi	sp,sp,-12
   40560:	df000215 	stw	fp,8(sp)
   40564:	df000204 	addi	fp,sp,8
   40568:	2005883a 	mov	r2,r4
   4056c:	2807883a 	mov	r3,r5
   40570:	e0bfff05 	stb	r2,-4(fp)
   40574:	1805883a 	mov	r2,r3
   40578:	e0bffe05 	stb	r2,-8(fp)
    IOWR_32DIRECT(I2C_MASTER_BASE, TFR_CMD, (RTC_ADR<<1));
   4057c:	00803404 	movi	r2,208
   40580:	00800035 	stwio	r2,0(zero)
    IOWR_32DIRECT(I2C_MASTER_BASE, TFR_CMD, reg);
   40584:	e0bfff03 	ldbu	r2,-4(fp)
   40588:	00800035 	stwio	r2,0(zero)
    IOWR_32DIRECT(I2C_MASTER_BASE, TFR_CMD, val|STOP);
   4058c:	e0bffe03 	ldbu	r2,-8(fp)
   40590:	10804014 	ori	r2,r2,256
   40594:	00800035 	stwio	r2,0(zero)
    while ((0xF & IORD_32DIRECT(I2C_MASTER_BASE, TFR_CMD_FIFO)) != 0);
   40598:	0001883a 	nop
   4059c:	00800437 	ldwio	r2,16(zero)
   405a0:	108003cc 	andi	r2,r2,15
   405a4:	103ffd1e 	bne	r2,zero,4059c <set_single_slave_rtc+0x40>
}
   405a8:	0001883a 	nop
   405ac:	0001883a 	nop
   405b0:	e037883a 	mov	sp,fp
   405b4:	df000017 	ldw	fp,0(sp)
   405b8:	dec00104 	addi	sp,sp,4
   405bc:	f800283a 	ret

000405c0 <get_single_slave_rtc>:

byte get_single_slave_rtc(byte reg)
{
   405c0:	defffe04 	addi	sp,sp,-8
   405c4:	df000115 	stw	fp,4(sp)
   405c8:	df000104 	addi	fp,sp,4
   405cc:	2005883a 	mov	r2,r4
   405d0:	e0bfff05 	stb	r2,-4(fp)
    IOWR_32DIRECT(I2C_MASTER_BASE, TFR_CMD, (RTC_ADR<<1));
   405d4:	00803404 	movi	r2,208
   405d8:	00800035 	stwio	r2,0(zero)
    IOWR_32DIRECT(I2C_MASTER_BASE, TFR_CMD, STOP|reg);
   405dc:	e0bfff03 	ldbu	r2,-4(fp)
   405e0:	10804014 	ori	r2,r2,256
   405e4:	00800035 	stwio	r2,0(zero)
    while ((0xF & IORD_32DIRECT(I2C_MASTER_BASE, TFR_CMD_FIFO)) != 0);
   405e8:	0001883a 	nop
   405ec:	00800437 	ldwio	r2,16(zero)
   405f0:	108003cc 	andi	r2,r2,15
   405f4:	103ffd1e 	bne	r2,zero,405ec <get_single_slave_rtc+0x2c>


    IOWR_32DIRECT(I2C_MASTER_BASE, TFR_CMD, (RTC_ADR<<1)|READ);
   405f8:	00803444 	movi	r2,209
   405fc:	00800035 	stwio	r2,0(zero)
    IOWR_32DIRECT(I2C_MASTER_BASE, TFR_CMD, STOP);
   40600:	00804004 	movi	r2,256
   40604:	00800035 	stwio	r2,0(zero)

    while ((0xF & IORD_32DIRECT(I2C_MASTER_BASE, TFR_CMD_FIFO)) != 0);
   40608:	0001883a 	nop
   4060c:	00800437 	ldwio	r2,16(zero)
   40610:	108003cc 	andi	r2,r2,15
   40614:	103ffd1e 	bne	r2,zero,4060c <get_single_slave_rtc+0x4c>
    // Wait for FIFO to be empty
    while ((0xF & IORD_32DIRECT(I2C_MASTER_BASE, RX_DATA_FIFO)) == 0);
   40618:	0001883a 	nop
   4061c:	00800537 	ldwio	r2,20(zero)
   40620:	108003cc 	andi	r2,r2,15
   40624:	103ffd26 	beq	r2,zero,4061c <get_single_slave_rtc+0x5c>

    return IORD_32DIRECT(I2C_MASTER_BASE, RX_DATA);
   40628:	00800137 	ldwio	r2,4(zero)
}
   4062c:	e037883a 	mov	sp,fp
   40630:	df000017 	ldw	fp,0(sp)
   40634:	dec00104 	addi	sp,sp,4
   40638:	f800283a 	ret

0004063c <get_single_slave_reg>:


byte get_single_slave_reg(byte adr, byte reg)
{
   4063c:	defffd04 	addi	sp,sp,-12
   40640:	df000215 	stw	fp,8(sp)
   40644:	df000204 	addi	fp,sp,8
   40648:	2005883a 	mov	r2,r4
   4064c:	2807883a 	mov	r3,r5
   40650:	e0bfff05 	stb	r2,-4(fp)
   40654:	1805883a 	mov	r2,r3
   40658:	e0bffe05 	stb	r2,-8(fp)
    IOWR_32DIRECT(I2C_MASTER_BASE, TFR_CMD, (adr<<1));
   4065c:	e0bfff03 	ldbu	r2,-4(fp)
   40660:	1085883a 	add	r2,r2,r2
   40664:	00800035 	stwio	r2,0(zero)
    IOWR_32DIRECT(I2C_MASTER_BASE, TFR_CMD, STOP|reg);
   40668:	e0bffe03 	ldbu	r2,-8(fp)
   4066c:	10804014 	ori	r2,r2,256
   40670:	00800035 	stwio	r2,0(zero)
    while ((0xF & IORD_32DIRECT(I2C_MASTER_BASE, TFR_CMD_FIFO)) != 0);
   40674:	0001883a 	nop
   40678:	00800437 	ldwio	r2,16(zero)
   4067c:	108003cc 	andi	r2,r2,15
   40680:	103ffd1e 	bne	r2,zero,40678 <get_single_slave_reg+0x3c>

    IOWR_32DIRECT(I2C_MASTER_BASE, TFR_CMD, STOP|(adr<<1)|READ);
   40684:	e0bfff03 	ldbu	r2,-4(fp)
   40688:	1085883a 	add	r2,r2,r2
   4068c:	10804054 	ori	r2,r2,257
   40690:	00800035 	stwio	r2,0(zero)
    while ((0xF & IORD_32DIRECT(I2C_MASTER_BASE, TFR_CMD_FIFO)) != 0);
   40694:	0001883a 	nop
   40698:	00800437 	ldwio	r2,16(zero)
   4069c:	108003cc 	andi	r2,r2,15
   406a0:	103ffd1e 	bne	r2,zero,40698 <get_single_slave_reg+0x5c>

    return IORD_32DIRECT(I2C_MASTER_BASE, RX_DATA);
   406a4:	00800137 	ldwio	r2,4(zero)
}
   406a8:	e037883a 	mov	sp,fp
   406ac:	df000017 	ldw	fp,0(sp)
   406b0:	dec00104 	addi	sp,sp,4
   406b4:	f800283a 	ret

000406b8 <__adddf3>:
   406b8:	00c00434 	movhi	r3,16
   406bc:	18ffffc4 	addi	r3,r3,-1
   406c0:	defffa04 	addi	sp,sp,-24
   406c4:	2810d7fa 	srli	r8,r5,31
   406c8:	3804d53a 	srli	r2,r7,20
   406cc:	28d4703a 	and	r10,r5,r3
   406d0:	38d2703a 	and	r9,r7,r3
   406d4:	280ad53a 	srli	r5,r5,20
   406d8:	501490fa 	slli	r10,r10,3
   406dc:	481290fa 	slli	r9,r9,3
   406e0:	3016d77a 	srli	r11,r6,29
   406e4:	dc400115 	stw	r17,4(sp)
   406e8:	380ed7fa 	srli	r7,r7,31
   406ec:	2022d77a 	srli	r17,r4,29
   406f0:	dd000415 	stw	r20,16(sp)
   406f4:	dcc00315 	stw	r19,12(sp)
   406f8:	dc000015 	stw	r16,0(sp)
   406fc:	1081ffcc 	andi	r2,r2,2047
   40700:	2c01ffcc 	andi	r16,r5,2047
   40704:	dfc00515 	stw	ra,20(sp)
   40708:	dc800215 	stw	r18,8(sp)
   4070c:	201890fa 	slli	r12,r4,3
   40710:	301a90fa 	slli	r13,r6,3
   40714:	4027883a 	mov	r19,r8
   40718:	45003fcc 	andi	r20,r8,255
   4071c:	8aa2b03a 	or	r17,r17,r10
   40720:	5a56b03a 	or	r11,r11,r9
   40724:	808bc83a 	sub	r5,r16,r2
   40728:	41c07526 	beq	r8,r7,40900 <__adddf3+0x248>
   4072c:	0140540e 	bge	zero,r5,40880 <__adddf3+0x1c8>
   40730:	10008b26 	beq	r2,zero,40960 <__adddf3+0x2a8>
   40734:	8081ffe0 	cmpeqi	r2,r16,2047
   40738:	10010d1e 	bne	r2,zero,40b70 <__adddf3+0x4b8>
   4073c:	28800e48 	cmpgei	r2,r5,57
   40740:	1000c11e 	bne	r2,zero,40a48 <__adddf3+0x390>
   40744:	5ac02034 	orhi	r11,r11,128
   40748:	28800808 	cmpgei	r2,r5,32
   4074c:	1001461e 	bne	r2,zero,40c68 <__adddf3+0x5b0>
   40750:	00800804 	movi	r2,32
   40754:	1145c83a 	sub	r2,r2,r5
   40758:	58a4983a 	sll	r18,r11,r2
   4075c:	6946d83a 	srl	r3,r13,r5
   40760:	6884983a 	sll	r2,r13,r2
   40764:	594ad83a 	srl	r5,r11,r5
   40768:	90e4b03a 	or	r18,r18,r3
   4076c:	1004c03a 	cmpne	r2,r2,zero
   40770:	90a4b03a 	or	r18,r18,r2
   40774:	8963c83a 	sub	r17,r17,r5
   40778:	64a5c83a 	sub	r18,r12,r18
   4077c:	6485803a 	cmpltu	r2,r12,r18
   40780:	88a3c83a 	sub	r17,r17,r2
   40784:	8880202c 	andhi	r2,r17,128
   40788:	1000b826 	beq	r2,zero,40a6c <__adddf3+0x3b4>
   4078c:	00802034 	movhi	r2,128
   40790:	10bfffc4 	addi	r2,r2,-1
   40794:	88a2703a 	and	r17,r17,r2
   40798:	8800d026 	beq	r17,zero,40adc <__adddf3+0x424>
   4079c:	8809883a 	mov	r4,r17
   407a0:	0041bf00 	call	41bf0 <__clzsi2>
   407a4:	113ffe04 	addi	r4,r2,-8
   407a8:	00c00804 	movi	r3,32
   407ac:	1905c83a 	sub	r2,r3,r4
   407b0:	9084d83a 	srl	r2,r18,r2
   407b4:	8922983a 	sll	r17,r17,r4
   407b8:	9124983a 	sll	r18,r18,r4
   407bc:	1444b03a 	or	r2,r2,r17
   407c0:	2400ff16 	blt	r4,r16,40bc0 <__adddf3+0x508>
   407c4:	2409c83a 	sub	r4,r4,r16
   407c8:	21000044 	addi	r4,r4,1
   407cc:	1907c83a 	sub	r3,r3,r4
   407d0:	90ca983a 	sll	r5,r18,r3
   407d4:	9122d83a 	srl	r17,r18,r4
   407d8:	280ac03a 	cmpne	r5,r5,zero
   407dc:	10c6983a 	sll	r3,r2,r3
   407e0:	894ab03a 	or	r5,r17,r5
   407e4:	1122d83a 	srl	r17,r2,r4
   407e8:	0021883a 	mov	r16,zero
   407ec:	1964b03a 	or	r18,r3,r5
   407f0:	908001cc 	andi	r2,r18,7
   407f4:	10000726 	beq	r2,zero,40814 <__adddf3+0x15c>
   407f8:	908003cc 	andi	r2,r18,15
   407fc:	10800120 	cmpeqi	r2,r2,4
   40800:	1000041e 	bne	r2,zero,40814 <__adddf3+0x15c>
   40804:	90800104 	addi	r2,r18,4
   40808:	14a5803a 	cmpltu	r18,r2,r18
   4080c:	8ca3883a 	add	r17,r17,r18
   40810:	1025883a 	mov	r18,r2
   40814:	8880202c 	andhi	r2,r17,128
   40818:	1000c926 	beq	r2,zero,40b40 <__adddf3+0x488>
   4081c:	8081ffa0 	cmpeqi	r2,r16,2046
   40820:	84000044 	addi	r16,r16,1
   40824:	1000841e 	bne	r2,zero,40a38 <__adddf3+0x380>
   40828:	013fe034 	movhi	r4,65408
   4082c:	213fffc4 	addi	r4,r4,-1
   40830:	8908703a 	and	r4,r17,r4
   40834:	2004977a 	slli	r2,r4,29
   40838:	2008927a 	slli	r4,r4,9
   4083c:	9024d0fa 	srli	r18,r18,3
   40840:	80c1ffcc 	andi	r3,r16,2047
   40844:	2008d33a 	srli	r4,r4,12
   40848:	1484b03a 	or	r2,r2,r18
   4084c:	a027883a 	mov	r19,r20
   40850:	1806953a 	slli	r3,r3,20
   40854:	982697fa 	slli	r19,r19,31
   40858:	1906b03a 	or	r3,r3,r4
   4085c:	1cc6b03a 	or	r3,r3,r19
   40860:	dfc00517 	ldw	ra,20(sp)
   40864:	dd000417 	ldw	r20,16(sp)
   40868:	dcc00317 	ldw	r19,12(sp)
   4086c:	dc800217 	ldw	r18,8(sp)
   40870:	dc400117 	ldw	r17,4(sp)
   40874:	dc000017 	ldw	r16,0(sp)
   40878:	dec00604 	addi	sp,sp,24
   4087c:	f800283a 	ret
   40880:	3a803fcc 	andi	r10,r7,255
   40884:	28004026 	beq	r5,zero,40988 <__adddf3+0x2d0>
   40888:	140bc83a 	sub	r5,r2,r16
   4088c:	8000e61e 	bne	r16,zero,40c28 <__adddf3+0x570>
   40890:	8b06b03a 	or	r3,r17,r12
   40894:	1800c426 	beq	r3,zero,40ba8 <__adddf3+0x4f0>
   40898:	28ffffc4 	addi	r3,r5,-1
   4089c:	18017a26 	beq	r3,zero,40e88 <__adddf3+0x7d0>
   408a0:	2941ffe0 	cmpeqi	r5,r5,2047
   408a4:	28019a1e 	bne	r5,zero,40f10 <__adddf3+0x858>
   408a8:	19000e48 	cmpgei	r4,r3,57
   408ac:	20010c1e 	bne	r4,zero,40ce0 <__adddf3+0x628>
   408b0:	180b883a 	mov	r5,r3
   408b4:	28c00808 	cmpgei	r3,r5,32
   408b8:	1801521e 	bne	r3,zero,40e04 <__adddf3+0x74c>
   408bc:	00c00804 	movi	r3,32
   408c0:	1947c83a 	sub	r3,r3,r5
   408c4:	88e4983a 	sll	r18,r17,r3
   408c8:	6148d83a 	srl	r4,r12,r5
   408cc:	60c6983a 	sll	r3,r12,r3
   408d0:	894ad83a 	srl	r5,r17,r5
   408d4:	9124b03a 	or	r18,r18,r4
   408d8:	1806c03a 	cmpne	r3,r3,zero
   408dc:	90e4b03a 	or	r18,r18,r3
   408e0:	5957c83a 	sub	r11,r11,r5
   408e4:	6ca5c83a 	sub	r18,r13,r18
   408e8:	6c9b803a 	cmpltu	r13,r13,r18
   408ec:	5b63c83a 	sub	r17,r11,r13
   408f0:	3827883a 	mov	r19,r7
   408f4:	1021883a 	mov	r16,r2
   408f8:	5029883a 	mov	r20,r10
   408fc:	003fa106 	br	40784 <__adddf3+0xcc>
   40900:	01405d0e 	bge	zero,r5,40a78 <__adddf3+0x3c0>
   40904:	1000351e 	bne	r2,zero,409dc <__adddf3+0x324>
   40908:	5b44b03a 	or	r2,r11,r13
   4090c:	1000a926 	beq	r2,zero,40bb4 <__adddf3+0x4fc>
   40910:	28bfffc4 	addi	r2,r5,-1
   40914:	10004e26 	beq	r2,zero,40a50 <__adddf3+0x398>
   40918:	2941ffe0 	cmpeqi	r5,r5,2047
   4091c:	2801121e 	bne	r5,zero,40d68 <__adddf3+0x6b0>
   40920:	10c00e48 	cmpgei	r3,r2,57
   40924:	1800311e 	bne	r3,zero,409ec <__adddf3+0x334>
   40928:	100b883a 	mov	r5,r2
   4092c:	28800808 	cmpgei	r2,r5,32
   40930:	1001181e 	bne	r2,zero,40d94 <__adddf3+0x6dc>
   40934:	00800804 	movi	r2,32
   40938:	1145c83a 	sub	r2,r2,r5
   4093c:	58a4983a 	sll	r18,r11,r2
   40940:	6946d83a 	srl	r3,r13,r5
   40944:	6884983a 	sll	r2,r13,r2
   40948:	594ad83a 	srl	r5,r11,r5
   4094c:	90e4b03a 	or	r18,r18,r3
   40950:	1004c03a 	cmpne	r2,r2,zero
   40954:	90a4b03a 	or	r18,r18,r2
   40958:	8963883a 	add	r17,r17,r5
   4095c:	00002406 	br	409f0 <__adddf3+0x338>
   40960:	5b44b03a 	or	r2,r11,r13
   40964:	10009326 	beq	r2,zero,40bb4 <__adddf3+0x4fc>
   40968:	28bfffc4 	addi	r2,r5,-1
   4096c:	1000f826 	beq	r2,zero,40d50 <__adddf3+0x698>
   40970:	2941ffe0 	cmpeqi	r5,r5,2047
   40974:	2800fc1e 	bne	r5,zero,40d68 <__adddf3+0x6b0>
   40978:	10c00e48 	cmpgei	r3,r2,57
   4097c:	1800321e 	bne	r3,zero,40a48 <__adddf3+0x390>
   40980:	100b883a 	mov	r5,r2
   40984:	003f7006 	br	40748 <__adddf3+0x90>
   40988:	80800044 	addi	r2,r16,1
   4098c:	1081ff8c 	andi	r2,r2,2046
   40990:	1000ab1e 	bne	r2,zero,40c40 <__adddf3+0x588>
   40994:	8b0ab03a 	or	r5,r17,r12
   40998:	5b44b03a 	or	r2,r11,r13
   4099c:	8000e71e 	bne	r16,zero,40d3c <__adddf3+0x684>
   409a0:	28014126 	beq	r5,zero,40ea8 <__adddf3+0x7f0>
   409a4:	10010626 	beq	r2,zero,40dc0 <__adddf3+0x708>
   409a8:	6365c83a 	sub	r18,r12,r13
   409ac:	6485803a 	cmpltu	r2,r12,r18
   409b0:	8ac7c83a 	sub	r3,r17,r11
   409b4:	1887c83a 	sub	r3,r3,r2
   409b8:	1880202c 	andhi	r2,r3,128
   409bc:	10017326 	beq	r2,zero,40f8c <__adddf3+0x8d4>
   409c0:	6b25c83a 	sub	r18,r13,r12
   409c4:	5c57c83a 	sub	r11,r11,r17
   409c8:	6c9b803a 	cmpltu	r13,r13,r18
   409cc:	5b63c83a 	sub	r17,r11,r13
   409d0:	3827883a 	mov	r19,r7
   409d4:	5029883a 	mov	r20,r10
   409d8:	003f8506 	br	407f0 <__adddf3+0x138>
   409dc:	8081ffe0 	cmpeqi	r2,r16,2047
   409e0:	1000631e 	bne	r2,zero,40b70 <__adddf3+0x4b8>
   409e4:	28800e48 	cmpgei	r2,r5,57
   409e8:	1000aa26 	beq	r2,zero,40c94 <__adddf3+0x5dc>
   409ec:	04800044 	movi	r18,1
   409f0:	9325883a 	add	r18,r18,r12
   409f4:	9305803a 	cmpltu	r2,r18,r12
   409f8:	88a3883a 	add	r17,r17,r2
   409fc:	8880202c 	andhi	r2,r17,128
   40a00:	10001a26 	beq	r2,zero,40a6c <__adddf3+0x3b4>
   40a04:	84000044 	addi	r16,r16,1
   40a08:	8081ffe0 	cmpeqi	r2,r16,2047
   40a0c:	10000a1e 	bne	r2,zero,40a38 <__adddf3+0x380>
   40a10:	00bfe034 	movhi	r2,65408
   40a14:	10bfffc4 	addi	r2,r2,-1
   40a18:	9006d07a 	srli	r3,r18,1
   40a1c:	8884703a 	and	r2,r17,r2
   40a20:	100897fa 	slli	r4,r2,31
   40a24:	9480004c 	andi	r18,r18,1
   40a28:	1c86b03a 	or	r3,r3,r18
   40a2c:	1022d07a 	srli	r17,r2,1
   40a30:	20e4b03a 	or	r18,r4,r3
   40a34:	003f6e06 	br	407f0 <__adddf3+0x138>
   40a38:	00c1ffc4 	movi	r3,2047
   40a3c:	0009883a 	mov	r4,zero
   40a40:	0005883a 	mov	r2,zero
   40a44:	003f8206 	br	40850 <__adddf3+0x198>
   40a48:	04800044 	movi	r18,1
   40a4c:	003f4a06 	br	40778 <__adddf3+0xc0>
   40a50:	6365883a 	add	r18,r12,r13
   40a54:	8ad7883a 	add	r11,r17,r11
   40a58:	9305803a 	cmpltu	r2,r18,r12
   40a5c:	58a3883a 	add	r17,r11,r2
   40a60:	8880202c 	andhi	r2,r17,128
   40a64:	1001061e 	bne	r2,zero,40e80 <__adddf3+0x7c8>
   40a68:	04000044 	movi	r16,1
   40a6c:	908001cc 	andi	r2,r18,7
   40a70:	103f611e 	bne	r2,zero,407f8 <__adddf3+0x140>
   40a74:	00006906 	br	40c1c <__adddf3+0x564>
   40a78:	28005626 	beq	r5,zero,40bd4 <__adddf3+0x51c>
   40a7c:	140bc83a 	sub	r5,r2,r16
   40a80:	80008626 	beq	r16,zero,40c9c <__adddf3+0x5e4>
   40a84:	10c1ffe0 	cmpeqi	r3,r2,2047
   40a88:	1801101e 	bne	r3,zero,40ecc <__adddf3+0x814>
   40a8c:	28c00e48 	cmpgei	r3,r5,57
   40a90:	1800da1e 	bne	r3,zero,40dfc <__adddf3+0x744>
   40a94:	8c402034 	orhi	r17,r17,128
   40a98:	28c00808 	cmpgei	r3,r5,32
   40a9c:	1801241e 	bne	r3,zero,40f30 <__adddf3+0x878>
   40aa0:	00c00804 	movi	r3,32
   40aa4:	1947c83a 	sub	r3,r3,r5
   40aa8:	88e4983a 	sll	r18,r17,r3
   40aac:	6148d83a 	srl	r4,r12,r5
   40ab0:	60c6983a 	sll	r3,r12,r3
   40ab4:	894ad83a 	srl	r5,r17,r5
   40ab8:	9124b03a 	or	r18,r18,r4
   40abc:	1806c03a 	cmpne	r3,r3,zero
   40ac0:	90e4b03a 	or	r18,r18,r3
   40ac4:	5957883a 	add	r11,r11,r5
   40ac8:	9365883a 	add	r18,r18,r13
   40acc:	935b803a 	cmpltu	r13,r18,r13
   40ad0:	6ae3883a 	add	r17,r13,r11
   40ad4:	1021883a 	mov	r16,r2
   40ad8:	003fc806 	br	409fc <__adddf3+0x344>
   40adc:	9009883a 	mov	r4,r18
   40ae0:	0041bf00 	call	41bf0 <__clzsi2>
   40ae4:	11000604 	addi	r4,r2,24
   40ae8:	20c00808 	cmpgei	r3,r4,32
   40aec:	183f2e26 	beq	r3,zero,407a8 <__adddf3+0xf0>
   40af0:	10bffe04 	addi	r2,r2,-8
   40af4:	9084983a 	sll	r2,r18,r2
   40af8:	24007216 	blt	r4,r16,40cc4 <__adddf3+0x60c>
   40afc:	2425c83a 	sub	r18,r4,r16
   40b00:	91000044 	addi	r4,r18,1
   40b04:	20c00808 	cmpgei	r3,r4,32
   40b08:	18012426 	beq	r3,zero,40f9c <__adddf3+0x8e4>
   40b0c:	94bff844 	addi	r18,r18,-31
   40b10:	20c00820 	cmpeqi	r3,r4,32
   40b14:	14a4d83a 	srl	r18,r2,r18
   40b18:	1800051e 	bne	r3,zero,40b30 <__adddf3+0x478>
   40b1c:	00c01004 	movi	r3,64
   40b20:	1907c83a 	sub	r3,r3,r4
   40b24:	10c4983a 	sll	r2,r2,r3
   40b28:	1004c03a 	cmpne	r2,r2,zero
   40b2c:	90a4b03a 	or	r18,r18,r2
   40b30:	908001cc 	andi	r2,r18,7
   40b34:	0021883a 	mov	r16,zero
   40b38:	103f2f1e 	bne	r2,zero,407f8 <__adddf3+0x140>
   40b3c:	00003706 	br	40c1c <__adddf3+0x564>
   40b40:	9004d0fa 	srli	r2,r18,3
   40b44:	880a977a 	slli	r5,r17,29
   40b48:	8101ffe0 	cmpeqi	r4,r16,2047
   40b4c:	8806d0fa 	srli	r3,r17,3
   40b50:	2884b03a 	or	r2,r5,r2
   40b54:	20000c1e 	bne	r4,zero,40b88 <__adddf3+0x4d0>
   40b58:	01000434 	movhi	r4,16
   40b5c:	213fffc4 	addi	r4,r4,-1
   40b60:	1908703a 	and	r4,r3,r4
   40b64:	80c1ffcc 	andi	r3,r16,2047
   40b68:	003f3906 	br	40850 <__adddf3+0x198>
   40b6c:	1000b31e 	bne	r2,zero,40e3c <__adddf3+0x784>
   40b70:	880a977a 	slli	r5,r17,29
   40b74:	00880034 	movhi	r2,8192
   40b78:	10bfffc4 	addi	r2,r2,-1
   40b7c:	8806d0fa 	srli	r3,r17,3
   40b80:	2084703a 	and	r2,r4,r2
   40b84:	1144b03a 	or	r2,r2,r5
   40b88:	10c8b03a 	or	r4,r2,r3
   40b8c:	20010726 	beq	r4,zero,40fac <__adddf3+0x8f4>
   40b90:	01400434 	movhi	r5,16
   40b94:	19000234 	orhi	r4,r3,8
   40b98:	297fffc4 	addi	r5,r5,-1
   40b9c:	2148703a 	and	r4,r4,r5
   40ba0:	00c1ffc4 	movi	r3,2047
   40ba4:	003f2a06 	br	40850 <__adddf3+0x198>
   40ba8:	6819883a 	mov	r12,r13
   40bac:	5823883a 	mov	r17,r11
   40bb0:	3827883a 	mov	r19,r7
   40bb4:	6004d0fa 	srli	r2,r12,3
   40bb8:	2821883a 	mov	r16,r5
   40bbc:	003fe106 	br	40b44 <__adddf3+0x48c>
   40bc0:	047fe034 	movhi	r17,65408
   40bc4:	8c7fffc4 	addi	r17,r17,-1
   40bc8:	8121c83a 	sub	r16,r16,r4
   40bcc:	1462703a 	and	r17,r2,r17
   40bd0:	003f0706 	br	407f0 <__adddf3+0x138>
   40bd4:	80c00044 	addi	r3,r16,1
   40bd8:	1881ff8c 	andi	r2,r3,2046
   40bdc:	1000421e 	bne	r2,zero,40ce8 <__adddf3+0x630>
   40be0:	8b04b03a 	or	r2,r17,r12
   40be4:	8000921e 	bne	r16,zero,40e30 <__adddf3+0x778>
   40be8:	1000c226 	beq	r2,zero,40ef4 <__adddf3+0x83c>
   40bec:	5b44b03a 	or	r2,r11,r13
   40bf0:	10007326 	beq	r2,zero,40dc0 <__adddf3+0x708>
   40bf4:	6365883a 	add	r18,r12,r13
   40bf8:	9305803a 	cmpltu	r2,r18,r12
   40bfc:	8ad7883a 	add	r11,r17,r11
   40c00:	58a3883a 	add	r17,r11,r2
   40c04:	8880202c 	andhi	r2,r17,128
   40c08:	10000426 	beq	r2,zero,40c1c <__adddf3+0x564>
   40c0c:	00bfe034 	movhi	r2,65408
   40c10:	10bfffc4 	addi	r2,r2,-1
   40c14:	88a2703a 	and	r17,r17,r2
   40c18:	04000044 	movi	r16,1
   40c1c:	800b883a 	mov	r5,r16
   40c20:	9019883a 	mov	r12,r18
   40c24:	003fe306 	br	40bb4 <__adddf3+0x4fc>
   40c28:	10c1ffe0 	cmpeqi	r3,r2,2047
   40c2c:	18006b1e 	bne	r3,zero,40ddc <__adddf3+0x724>
   40c30:	28c00e48 	cmpgei	r3,r5,57
   40c34:	18002a1e 	bne	r3,zero,40ce0 <__adddf3+0x628>
   40c38:	8c402034 	orhi	r17,r17,128
   40c3c:	003f1d06 	br	408b4 <__adddf3+0x1fc>
   40c40:	6365c83a 	sub	r18,r12,r13
   40c44:	6485803a 	cmpltu	r2,r12,r18
   40c48:	8ac7c83a 	sub	r3,r17,r11
   40c4c:	1887c83a 	sub	r3,r3,r2
   40c50:	1880202c 	andhi	r2,r3,128
   40c54:	1000321e 	bne	r2,zero,40d20 <__adddf3+0x668>
   40c58:	90c4b03a 	or	r2,r18,r3
   40c5c:	10004926 	beq	r2,zero,40d84 <__adddf3+0x6cc>
   40c60:	1823883a 	mov	r17,r3
   40c64:	003ecc06 	br	40798 <__adddf3+0xe0>
   40c68:	28bff804 	addi	r2,r5,-32
   40c6c:	28c00820 	cmpeqi	r3,r5,32
   40c70:	5884d83a 	srl	r2,r11,r2
   40c74:	1800041e 	bne	r3,zero,40c88 <__adddf3+0x5d0>
   40c78:	00c01004 	movi	r3,64
   40c7c:	1947c83a 	sub	r3,r3,r5
   40c80:	58c6983a 	sll	r3,r11,r3
   40c84:	68dab03a 	or	r13,r13,r3
   40c88:	6824c03a 	cmpne	r18,r13,zero
   40c8c:	90a4b03a 	or	r18,r18,r2
   40c90:	003eb906 	br	40778 <__adddf3+0xc0>
   40c94:	5ac02034 	orhi	r11,r11,128
   40c98:	003f2406 	br	4092c <__adddf3+0x274>
   40c9c:	8b06b03a 	or	r3,r17,r12
   40ca0:	18009126 	beq	r3,zero,40ee8 <__adddf3+0x830>
   40ca4:	28ffffc4 	addi	r3,r5,-1
   40ca8:	1800ac26 	beq	r3,zero,40f5c <__adddf3+0x8a4>
   40cac:	2941ffe0 	cmpeqi	r5,r5,2047
   40cb0:	2800861e 	bne	r5,zero,40ecc <__adddf3+0x814>
   40cb4:	19000e48 	cmpgei	r4,r3,57
   40cb8:	2000501e 	bne	r4,zero,40dfc <__adddf3+0x744>
   40cbc:	180b883a 	mov	r5,r3
   40cc0:	003f7506 	br	40a98 <__adddf3+0x3e0>
   40cc4:	00ffe034 	movhi	r3,65408
   40cc8:	18ffffc4 	addi	r3,r3,-1
   40ccc:	10c6703a 	and	r3,r2,r3
   40cd0:	1804977a 	slli	r2,r3,29
   40cd4:	8121c83a 	sub	r16,r16,r4
   40cd8:	1806d0fa 	srli	r3,r3,3
   40cdc:	003f9e06 	br	40b58 <__adddf3+0x4a0>
   40ce0:	04800044 	movi	r18,1
   40ce4:	003eff06 	br	408e4 <__adddf3+0x22c>
   40ce8:	1881ffe0 	cmpeqi	r2,r3,2047
   40cec:	103f521e 	bne	r2,zero,40a38 <__adddf3+0x380>
   40cf0:	6349883a 	add	r4,r12,r13
   40cf4:	8ad7883a 	add	r11,r17,r11
   40cf8:	2305803a 	cmpltu	r2,r4,r12
   40cfc:	5885883a 	add	r2,r11,r2
   40d00:	2008d07a 	srli	r4,r4,1
   40d04:	102497fa 	slli	r18,r2,31
   40d08:	1022d07a 	srli	r17,r2,1
   40d0c:	208001cc 	andi	r2,r4,7
   40d10:	9124b03a 	or	r18,r18,r4
   40d14:	1821883a 	mov	r16,r3
   40d18:	103eb71e 	bne	r2,zero,407f8 <__adddf3+0x140>
   40d1c:	003fbf06 	br	40c1c <__adddf3+0x564>
   40d20:	6b25c83a 	sub	r18,r13,r12
   40d24:	5c57c83a 	sub	r11,r11,r17
   40d28:	6c9b803a 	cmpltu	r13,r13,r18
   40d2c:	5b63c83a 	sub	r17,r11,r13
   40d30:	3827883a 	mov	r19,r7
   40d34:	5029883a 	mov	r20,r10
   40d38:	003e9706 	br	40798 <__adddf3+0xe0>
   40d3c:	283f8b1e 	bne	r5,zero,40b6c <__adddf3+0x4b4>
   40d40:	1000261e 	bne	r2,zero,40ddc <__adddf3+0x724>
   40d44:	00bfffc4 	movi	r2,-1
   40d48:	0027883a 	mov	r19,zero
   40d4c:	003f9006 	br	40b90 <__adddf3+0x4d8>
   40d50:	6365c83a 	sub	r18,r12,r13
   40d54:	8ad7c83a 	sub	r11,r17,r11
   40d58:	6485803a 	cmpltu	r2,r12,r18
   40d5c:	58a3c83a 	sub	r17,r11,r2
   40d60:	04000044 	movi	r16,1
   40d64:	003e8706 	br	40784 <__adddf3+0xcc>
   40d68:	8804977a 	slli	r2,r17,29
   40d6c:	00c80034 	movhi	r3,8192
   40d70:	18ffffc4 	addi	r3,r3,-1
   40d74:	20c8703a 	and	r4,r4,r3
   40d78:	2084b03a 	or	r2,r4,r2
   40d7c:	8806d0fa 	srli	r3,r17,3
   40d80:	003f8106 	br	40b88 <__adddf3+0x4d0>
   40d84:	0027883a 	mov	r19,zero
   40d88:	0007883a 	mov	r3,zero
   40d8c:	0009883a 	mov	r4,zero
   40d90:	003eaf06 	br	40850 <__adddf3+0x198>
   40d94:	28bff804 	addi	r2,r5,-32
   40d98:	28c00820 	cmpeqi	r3,r5,32
   40d9c:	5884d83a 	srl	r2,r11,r2
   40da0:	1800041e 	bne	r3,zero,40db4 <__adddf3+0x6fc>
   40da4:	00c01004 	movi	r3,64
   40da8:	1947c83a 	sub	r3,r3,r5
   40dac:	58c6983a 	sll	r3,r11,r3
   40db0:	68dab03a 	or	r13,r13,r3
   40db4:	6824c03a 	cmpne	r18,r13,zero
   40db8:	90a4b03a 	or	r18,r18,r2
   40dbc:	003f0c06 	br	409f0 <__adddf3+0x338>
   40dc0:	880a977a 	slli	r5,r17,29
   40dc4:	00880034 	movhi	r2,8192
   40dc8:	10bfffc4 	addi	r2,r2,-1
   40dcc:	2084703a 	and	r2,r4,r2
   40dd0:	8806d0fa 	srli	r3,r17,3
   40dd4:	1144b03a 	or	r2,r2,r5
   40dd8:	003f5f06 	br	40b58 <__adddf3+0x4a0>
   40ddc:	5804977a 	slli	r2,r11,29
   40de0:	00c80034 	movhi	r3,8192
   40de4:	18ffffc4 	addi	r3,r3,-1
   40de8:	30c8703a 	and	r4,r6,r3
   40dec:	1104b03a 	or	r2,r2,r4
   40df0:	5806d0fa 	srli	r3,r11,3
   40df4:	3827883a 	mov	r19,r7
   40df8:	003f6306 	br	40b88 <__adddf3+0x4d0>
   40dfc:	04800044 	movi	r18,1
   40e00:	003f3106 	br	40ac8 <__adddf3+0x410>
   40e04:	28fff804 	addi	r3,r5,-32
   40e08:	29000820 	cmpeqi	r4,r5,32
   40e0c:	88c6d83a 	srl	r3,r17,r3
   40e10:	2000041e 	bne	r4,zero,40e24 <__adddf3+0x76c>
   40e14:	01001004 	movi	r4,64
   40e18:	2149c83a 	sub	r4,r4,r5
   40e1c:	8908983a 	sll	r4,r17,r4
   40e20:	6118b03a 	or	r12,r12,r4
   40e24:	6024c03a 	cmpne	r18,r12,zero
   40e28:	90e4b03a 	or	r18,r18,r3
   40e2c:	003ead06 	br	408e4 <__adddf3+0x22c>
   40e30:	10004f26 	beq	r2,zero,40f70 <__adddf3+0x8b8>
   40e34:	5b5ab03a 	or	r13,r11,r13
   40e38:	683f4d26 	beq	r13,zero,40b70 <__adddf3+0x4b8>
   40e3c:	8806d0fa 	srli	r3,r17,3
   40e40:	01480034 	movhi	r5,8192
   40e44:	8822977a 	slli	r17,r17,29
   40e48:	297fffc4 	addi	r5,r5,-1
   40e4c:	2144703a 	and	r2,r4,r5
   40e50:	1900022c 	andhi	r4,r3,8
   40e54:	1444b03a 	or	r2,r2,r17
   40e58:	203f4b26 	beq	r4,zero,40b88 <__adddf3+0x4d0>
   40e5c:	5808d0fa 	srli	r4,r11,3
   40e60:	2200022c 	andhi	r8,r4,8
   40e64:	403f481e 	bne	r8,zero,40b88 <__adddf3+0x4d0>
   40e68:	5804977a 	slli	r2,r11,29
   40e6c:	314a703a 	and	r5,r6,r5
   40e70:	3827883a 	mov	r19,r7
   40e74:	2884b03a 	or	r2,r5,r2
   40e78:	2007883a 	mov	r3,r4
   40e7c:	003f4206 	br	40b88 <__adddf3+0x4d0>
   40e80:	04000084 	movi	r16,2
   40e84:	003ee206 	br	40a10 <__adddf3+0x358>
   40e88:	6b25c83a 	sub	r18,r13,r12
   40e8c:	5c57c83a 	sub	r11,r11,r17
   40e90:	6c9b803a 	cmpltu	r13,r13,r18
   40e94:	5b63c83a 	sub	r17,r11,r13
   40e98:	3827883a 	mov	r19,r7
   40e9c:	5029883a 	mov	r20,r10
   40ea0:	04000044 	movi	r16,1
   40ea4:	003e3706 	br	40784 <__adddf3+0xcc>
   40ea8:	103fb626 	beq	r2,zero,40d84 <__adddf3+0x6cc>
   40eac:	5808977a 	slli	r4,r11,29
   40eb0:	00880034 	movhi	r2,8192
   40eb4:	10bfffc4 	addi	r2,r2,-1
   40eb8:	3084703a 	and	r2,r6,r2
   40ebc:	5806d0fa 	srli	r3,r11,3
   40ec0:	1104b03a 	or	r2,r2,r4
   40ec4:	3827883a 	mov	r19,r7
   40ec8:	003f2306 	br	40b58 <__adddf3+0x4a0>
   40ecc:	5808977a 	slli	r4,r11,29
   40ed0:	00880034 	movhi	r2,8192
   40ed4:	10bfffc4 	addi	r2,r2,-1
   40ed8:	3084703a 	and	r2,r6,r2
   40edc:	5806d0fa 	srli	r3,r11,3
   40ee0:	1104b03a 	or	r2,r2,r4
   40ee4:	003f2806 	br	40b88 <__adddf3+0x4d0>
   40ee8:	6819883a 	mov	r12,r13
   40eec:	5823883a 	mov	r17,r11
   40ef0:	003f3006 	br	40bb4 <__adddf3+0x4fc>
   40ef4:	5808977a 	slli	r4,r11,29
   40ef8:	00880034 	movhi	r2,8192
   40efc:	10bfffc4 	addi	r2,r2,-1
   40f00:	3084703a 	and	r2,r6,r2
   40f04:	5806d0fa 	srli	r3,r11,3
   40f08:	1104b03a 	or	r2,r2,r4
   40f0c:	003f1206 	br	40b58 <__adddf3+0x4a0>
   40f10:	5808977a 	slli	r4,r11,29
   40f14:	00880034 	movhi	r2,8192
   40f18:	10bfffc4 	addi	r2,r2,-1
   40f1c:	3084703a 	and	r2,r6,r2
   40f20:	5806d0fa 	srli	r3,r11,3
   40f24:	1104b03a 	or	r2,r2,r4
   40f28:	3827883a 	mov	r19,r7
   40f2c:	003f1606 	br	40b88 <__adddf3+0x4d0>
   40f30:	28fff804 	addi	r3,r5,-32
   40f34:	29000820 	cmpeqi	r4,r5,32
   40f38:	88c6d83a 	srl	r3,r17,r3
   40f3c:	2000041e 	bne	r4,zero,40f50 <__adddf3+0x898>
   40f40:	01001004 	movi	r4,64
   40f44:	2149c83a 	sub	r4,r4,r5
   40f48:	8908983a 	sll	r4,r17,r4
   40f4c:	6118b03a 	or	r12,r12,r4
   40f50:	6024c03a 	cmpne	r18,r12,zero
   40f54:	90e4b03a 	or	r18,r18,r3
   40f58:	003edb06 	br	40ac8 <__adddf3+0x410>
   40f5c:	6365883a 	add	r18,r12,r13
   40f60:	8ad7883a 	add	r11,r17,r11
   40f64:	935b803a 	cmpltu	r13,r18,r13
   40f68:	5b63883a 	add	r17,r11,r13
   40f6c:	003ebc06 	br	40a60 <__adddf3+0x3a8>
   40f70:	5804977a 	slli	r2,r11,29
   40f74:	00c80034 	movhi	r3,8192
   40f78:	18ffffc4 	addi	r3,r3,-1
   40f7c:	30cc703a 	and	r6,r6,r3
   40f80:	1184b03a 	or	r2,r2,r6
   40f84:	5806d0fa 	srli	r3,r11,3
   40f88:	003eff06 	br	40b88 <__adddf3+0x4d0>
   40f8c:	90c4b03a 	or	r2,r18,r3
   40f90:	103f7c26 	beq	r2,zero,40d84 <__adddf3+0x6cc>
   40f94:	1823883a 	mov	r17,r3
   40f98:	003f2006 	br	40c1c <__adddf3+0x564>
   40f9c:	00c00804 	movi	r3,32
   40fa0:	1907c83a 	sub	r3,r3,r4
   40fa4:	000b883a 	mov	r5,zero
   40fa8:	003e0c06 	br	407dc <__adddf3+0x124>
   40fac:	0005883a 	mov	r2,zero
   40fb0:	00c1ffc4 	movi	r3,2047
   40fb4:	0009883a 	mov	r4,zero
   40fb8:	003e2506 	br	40850 <__adddf3+0x198>

00040fbc <__divdf3>:
   40fbc:	2806d53a 	srli	r3,r5,20
   40fc0:	defff004 	addi	sp,sp,-64
   40fc4:	00800434 	movhi	r2,16
   40fc8:	dd800c15 	stw	r22,48(sp)
   40fcc:	dd400b15 	stw	r21,44(sp)
   40fd0:	dd000a15 	stw	r20,40(sp)
   40fd4:	dc800815 	stw	r18,32(sp)
   40fd8:	dc000615 	stw	r16,24(sp)
   40fdc:	10bfffc4 	addi	r2,r2,-1
   40fe0:	dfc00f15 	stw	ra,60(sp)
   40fe4:	df000e15 	stw	fp,56(sp)
   40fe8:	ddc00d15 	stw	r23,52(sp)
   40fec:	dcc00915 	stw	r19,36(sp)
   40ff0:	dc400715 	stw	r17,28(sp)
   40ff4:	18c1ffcc 	andi	r3,r3,2047
   40ff8:	282cd7fa 	srli	r22,r5,31
   40ffc:	302b883a 	mov	r21,r6
   41000:	3821883a 	mov	r16,r7
   41004:	2029883a 	mov	r20,r4
   41008:	28a4703a 	and	r18,r5,r2
   4100c:	18013426 	beq	r3,zero,414e0 <__divdf3+0x524>
   41010:	1881ffe0 	cmpeqi	r2,r3,2047
   41014:	1001451e 	bne	r2,zero,4152c <__divdf3+0x570>
   41018:	900a90fa 	slli	r5,r18,3
   4101c:	2022d77a 	srli	r17,r4,29
   41020:	202890fa 	slli	r20,r4,3
   41024:	1f3f0044 	addi	fp,r3,-1023
   41028:	8962b03a 	or	r17,r17,r5
   4102c:	8c402034 	orhi	r17,r17,128
   41030:	0027883a 	mov	r19,zero
   41034:	0025883a 	mov	r18,zero
   41038:	8004d53a 	srli	r2,r16,20
   4103c:	01000434 	movhi	r4,16
   41040:	213fffc4 	addi	r4,r4,-1
   41044:	1081ffcc 	andi	r2,r2,2047
   41048:	802ed7fa 	srli	r23,r16,31
   4104c:	8120703a 	and	r16,r16,r4
   41050:	10011226 	beq	r2,zero,4149c <__divdf3+0x4e0>
   41054:	1101ffe0 	cmpeqi	r4,r2,2047
   41058:	20013b1e 	bne	r4,zero,41548 <__divdf3+0x58c>
   4105c:	a808d77a 	srli	r4,r21,29
   41060:	802090fa 	slli	r16,r16,3
   41064:	a80e90fa 	slli	r7,r21,3
   41068:	10bf0044 	addi	r2,r2,-1023
   4106c:	2420b03a 	or	r16,r4,r16
   41070:	84002034 	orhi	r16,r16,128
   41074:	e0b9c83a 	sub	fp,fp,r2
   41078:	0009883a 	mov	r4,zero
   4107c:	98800428 	cmpgeui	r2,r19,16
   41080:	b5eaf03a 	xor	r21,r22,r23
   41084:	1000391e 	bne	r2,zero,4116c <__divdf3+0x1b0>
   41088:	982690ba 	slli	r19,r19,2
   4108c:	00800134 	movhi	r2,4
   41090:	9885883a 	add	r2,r19,r2
   41094:	10842717 	ldw	r2,4252(r2)
   41098:	1000683a 	jmp	r2
   4109c:	0004116c 	andhi	zero,zero,4165
   410a0:	00041154 	movui	zero,4165
   410a4:	00041104 	movi	zero,4164
   410a8:	00041164 	muli	zero,zero,4165
   410ac:	00041104 	movi	zero,4164
   410b0:	000415ac 	andhi	zero,zero,4182
   410b4:	00041104 	movi	zero,4164
   410b8:	00041164 	muli	zero,zero,4165
   410bc:	00041154 	movui	zero,4165
   410c0:	00041154 	movui	zero,4165
   410c4:	000415ac 	andhi	zero,zero,4182
   410c8:	00041164 	muli	zero,zero,4165
   410cc:	000410dc 	xori	zero,zero,4163
   410d0:	000410dc 	xori	zero,zero,4163
   410d4:	000410dc 	xori	zero,zero,4163
   410d8:	0004163c 	xorhi	zero,zero,4184
   410dc:	b02b883a 	mov	r21,r22
   410e0:	8821883a 	mov	r16,r17
   410e4:	a00f883a 	mov	r7,r20
   410e8:	9009883a 	mov	r4,r18
   410ec:	208000a0 	cmpeqi	r2,r4,2
   410f0:	1000181e 	bne	r2,zero,41154 <__divdf3+0x198>
   410f4:	208000e0 	cmpeqi	r2,r4,3
   410f8:	1001df1e 	bne	r2,zero,41878 <__divdf3+0x8bc>
   410fc:	21000060 	cmpeqi	r4,r4,1
   41100:	2000d326 	beq	r4,zero,41450 <__divdf3+0x494>
   41104:	0009883a 	mov	r4,zero
   41108:	0023883a 	mov	r17,zero
   4110c:	0029883a 	mov	r20,zero
   41110:	2006953a 	slli	r3,r4,20
   41114:	a80c97fa 	slli	r6,r21,31
   41118:	a005883a 	mov	r2,r20
   4111c:	1c46b03a 	or	r3,r3,r17
   41120:	1986b03a 	or	r3,r3,r6
   41124:	dfc00f17 	ldw	ra,60(sp)
   41128:	df000e17 	ldw	fp,56(sp)
   4112c:	ddc00d17 	ldw	r23,52(sp)
   41130:	dd800c17 	ldw	r22,48(sp)
   41134:	dd400b17 	ldw	r21,44(sp)
   41138:	dd000a17 	ldw	r20,40(sp)
   4113c:	dcc00917 	ldw	r19,36(sp)
   41140:	dc800817 	ldw	r18,32(sp)
   41144:	dc400717 	ldw	r17,28(sp)
   41148:	dc000617 	ldw	r16,24(sp)
   4114c:	dec01004 	addi	sp,sp,64
   41150:	f800283a 	ret
   41154:	0101ffc4 	movi	r4,2047
   41158:	0023883a 	mov	r17,zero
   4115c:	0029883a 	mov	r20,zero
   41160:	003feb06 	br	41110 <__divdf3+0x154>
   41164:	b82b883a 	mov	r21,r23
   41168:	003fe006 	br	410ec <__divdf3+0x130>
   4116c:	84414d36 	bltu	r16,r17,416a4 <__divdf3+0x6e8>
   41170:	84414b26 	beq	r16,r17,416a0 <__divdf3+0x6e4>
   41174:	a025883a 	mov	r18,r20
   41178:	e73fffc4 	addi	fp,fp,-1
   4117c:	0029883a 	mov	r20,zero
   41180:	8020923a 	slli	r16,r16,8
   41184:	3826d63a 	srli	r19,r7,24
   41188:	8809883a 	mov	r4,r17
   4118c:	802ed43a 	srli	r23,r16,16
   41190:	9c26b03a 	or	r19,r19,r16
   41194:	9dbfffcc 	andi	r22,r19,65535
   41198:	b80b883a 	mov	r5,r23
   4119c:	d9c00115 	stw	r7,4(sp)
   411a0:	dd800015 	stw	r22,0(sp)
   411a4:	0041d340 	call	41d34 <__udivsi3>
   411a8:	b009883a 	mov	r4,r22
   411ac:	100b883a 	mov	r5,r2
   411b0:	1021883a 	mov	r16,r2
   411b4:	0041df40 	call	41df4 <__mulsi3>
   411b8:	8809883a 	mov	r4,r17
   411bc:	b80b883a 	mov	r5,r23
   411c0:	102d883a 	mov	r22,r2
   411c4:	0041d980 	call	41d98 <__umodsi3>
   411c8:	1004943a 	slli	r2,r2,16
   411cc:	9008d43a 	srli	r4,r18,16
   411d0:	d9c00117 	ldw	r7,4(sp)
   411d4:	2088b03a 	or	r4,r4,r2
   411d8:	3822923a 	slli	r17,r7,8
   411dc:	2580042e 	bgeu	r4,r22,411f0 <__divdf3+0x234>
   411e0:	24c9883a 	add	r4,r4,r19
   411e4:	80bfffc4 	addi	r2,r16,-1
   411e8:	24c1602e 	bgeu	r4,r19,4176c <__divdf3+0x7b0>
   411ec:	1021883a 	mov	r16,r2
   411f0:	25adc83a 	sub	r22,r4,r22
   411f4:	b80b883a 	mov	r5,r23
   411f8:	b009883a 	mov	r4,r22
   411fc:	0041d340 	call	41d34 <__udivsi3>
   41200:	d9000017 	ldw	r4,0(sp)
   41204:	100b883a 	mov	r5,r2
   41208:	d8800215 	stw	r2,8(sp)
   4120c:	0041df40 	call	41df4 <__mulsi3>
   41210:	b80b883a 	mov	r5,r23
   41214:	b009883a 	mov	r4,r22
   41218:	d8800115 	stw	r2,4(sp)
   4121c:	0041d980 	call	41d98 <__umodsi3>
   41220:	1004943a 	slli	r2,r2,16
   41224:	da400117 	ldw	r9,4(sp)
   41228:	94bfffcc 	andi	r18,r18,65535
   4122c:	908eb03a 	or	r7,r18,r2
   41230:	da000217 	ldw	r8,8(sp)
   41234:	3a40042e 	bgeu	r7,r9,41248 <__divdf3+0x28c>
   41238:	3ccf883a 	add	r7,r7,r19
   4123c:	40bfffc4 	addi	r2,r8,-1
   41240:	3cc1462e 	bgeu	r7,r19,4175c <__divdf3+0x7a0>
   41244:	1011883a 	mov	r8,r2
   41248:	8020943a 	slli	r16,r16,16
   4124c:	88bfffcc 	andi	r2,r17,65535
   41250:	100b883a 	mov	r5,r2
   41254:	8220b03a 	or	r16,r16,r8
   41258:	82bfffcc 	andi	r10,r16,65535
   4125c:	3a51c83a 	sub	r8,r7,r9
   41260:	5009883a 	mov	r4,r10
   41264:	da000415 	stw	r8,16(sp)
   41268:	da800515 	stw	r10,20(sp)
   4126c:	8024d43a 	srli	r18,r16,16
   41270:	d8800115 	stw	r2,4(sp)
   41274:	0041df40 	call	41df4 <__mulsi3>
   41278:	d9400117 	ldw	r5,4(sp)
   4127c:	882cd43a 	srli	r22,r17,16
   41280:	9009883a 	mov	r4,r18
   41284:	d8800315 	stw	r2,12(sp)
   41288:	0041df40 	call	41df4 <__mulsi3>
   4128c:	9009883a 	mov	r4,r18
   41290:	b00b883a 	mov	r5,r22
   41294:	d8800215 	stw	r2,8(sp)
   41298:	0041df40 	call	41df4 <__mulsi3>
   4129c:	da800517 	ldw	r10,20(sp)
   412a0:	b009883a 	mov	r4,r22
   412a4:	1025883a 	mov	r18,r2
   412a8:	500b883a 	mov	r5,r10
   412ac:	0041df40 	call	41df4 <__mulsi3>
   412b0:	da400317 	ldw	r9,12(sp)
   412b4:	d9c00217 	ldw	r7,8(sp)
   412b8:	da000417 	ldw	r8,16(sp)
   412bc:	4808d43a 	srli	r4,r9,16
   412c0:	11c5883a 	add	r2,r2,r7
   412c4:	2089883a 	add	r4,r4,r2
   412c8:	21c0022e 	bgeu	r4,r7,412d4 <__divdf3+0x318>
   412cc:	00800074 	movhi	r2,1
   412d0:	90a5883a 	add	r18,r18,r2
   412d4:	200ad43a 	srli	r5,r4,16
   412d8:	200e943a 	slli	r7,r4,16
   412dc:	4a7fffcc 	andi	r9,r9,65535
   412e0:	2c85883a 	add	r2,r5,r18
   412e4:	3a4f883a 	add	r7,r7,r9
   412e8:	40800236 	bltu	r8,r2,412f4 <__divdf3+0x338>
   412ec:	40800a1e 	bne	r8,r2,41318 <__divdf3+0x35c>
   412f0:	a1c0092e 	bgeu	r20,r7,41318 <__divdf3+0x35c>
   412f4:	a469883a 	add	r20,r20,r17
   412f8:	a449803a 	cmpltu	r4,r20,r17
   412fc:	24c9883a 	add	r4,r4,r19
   41300:	4111883a 	add	r8,r8,r4
   41304:	813fffc4 	addi	r4,r16,-1
   41308:	9a01112e 	bgeu	r19,r8,41750 <__divdf3+0x794>
   4130c:	40814236 	bltu	r8,r2,41818 <__divdf3+0x85c>
   41310:	12014026 	beq	r2,r8,41814 <__divdf3+0x858>
   41314:	2021883a 	mov	r16,r4
   41318:	a1e5c83a 	sub	r18,r20,r7
   4131c:	4085c83a 	sub	r2,r8,r2
   41320:	a4a9803a 	cmpltu	r20,r20,r18
   41324:	1529c83a 	sub	r20,r2,r20
   41328:	9d012926 	beq	r19,r20,417d0 <__divdf3+0x814>
   4132c:	a009883a 	mov	r4,r20
   41330:	b80b883a 	mov	r5,r23
   41334:	0041d340 	call	41d34 <__udivsi3>
   41338:	d9000017 	ldw	r4,0(sp)
   4133c:	100b883a 	mov	r5,r2
   41340:	d8800215 	stw	r2,8(sp)
   41344:	0041df40 	call	41df4 <__mulsi3>
   41348:	a009883a 	mov	r4,r20
   4134c:	b80b883a 	mov	r5,r23
   41350:	1029883a 	mov	r20,r2
   41354:	0041d980 	call	41d98 <__umodsi3>
   41358:	1004943a 	slli	r2,r2,16
   4135c:	9008d43a 	srli	r4,r18,16
   41360:	2088b03a 	or	r4,r4,r2
   41364:	2500f136 	bltu	r4,r20,4172c <__divdf3+0x770>
   41368:	2529c83a 	sub	r20,r4,r20
   4136c:	a009883a 	mov	r4,r20
   41370:	b80b883a 	mov	r5,r23
   41374:	0041d340 	call	41d34 <__udivsi3>
   41378:	d9000017 	ldw	r4,0(sp)
   4137c:	100b883a 	mov	r5,r2
   41380:	d8800315 	stw	r2,12(sp)
   41384:	0041df40 	call	41df4 <__mulsi3>
   41388:	a009883a 	mov	r4,r20
   4138c:	b80b883a 	mov	r5,r23
   41390:	1029883a 	mov	r20,r2
   41394:	0041d980 	call	41d98 <__umodsi3>
   41398:	1004943a 	slli	r2,r2,16
   4139c:	91ffffcc 	andi	r7,r18,65535
   413a0:	da400317 	ldw	r9,12(sp)
   413a4:	3890b03a 	or	r8,r7,r2
   413a8:	4500d936 	bltu	r8,r20,41710 <__divdf3+0x754>
   413ac:	d8800217 	ldw	r2,8(sp)
   413b0:	ddc00117 	ldw	r23,4(sp)
   413b4:	4529c83a 	sub	r20,r8,r20
   413b8:	1024943a 	slli	r18,r2,16
   413bc:	b809883a 	mov	r4,r23
   413c0:	924eb03a 	or	r7,r18,r9
   413c4:	3824d43a 	srli	r18,r7,16
   413c8:	3a7fffcc 	andi	r9,r7,65535
   413cc:	480b883a 	mov	r5,r9
   413d0:	d9c00215 	stw	r7,8(sp)
   413d4:	da400115 	stw	r9,4(sp)
   413d8:	0041df40 	call	41df4 <__mulsi3>
   413dc:	b80b883a 	mov	r5,r23
   413e0:	9009883a 	mov	r4,r18
   413e4:	102f883a 	mov	r23,r2
   413e8:	0041df40 	call	41df4 <__mulsi3>
   413ec:	900b883a 	mov	r5,r18
   413f0:	b009883a 	mov	r4,r22
   413f4:	d8800015 	stw	r2,0(sp)
   413f8:	0041df40 	call	41df4 <__mulsi3>
   413fc:	da400117 	ldw	r9,4(sp)
   41400:	b009883a 	mov	r4,r22
   41404:	1025883a 	mov	r18,r2
   41408:	480b883a 	mov	r5,r9
   4140c:	0041df40 	call	41df4 <__mulsi3>
   41410:	d8c00017 	ldw	r3,0(sp)
   41414:	b808d43a 	srli	r4,r23,16
   41418:	d9c00217 	ldw	r7,8(sp)
   4141c:	10cb883a 	add	r5,r2,r3
   41420:	2149883a 	add	r4,r4,r5
   41424:	20c0022e 	bgeu	r4,r3,41430 <__divdf3+0x474>
   41428:	00800074 	movhi	r2,1
   4142c:	90a5883a 	add	r18,r18,r2
   41430:	200ad43a 	srli	r5,r4,16
   41434:	2008943a 	slli	r4,r4,16
   41438:	ba3fffcc 	andi	r8,r23,65535
   4143c:	2c8b883a 	add	r5,r5,r18
   41440:	2209883a 	add	r4,r4,r8
   41444:	a1408f36 	bltu	r20,r5,41684 <__divdf3+0x6c8>
   41448:	a1408d26 	beq	r20,r5,41680 <__divdf3+0x6c4>
   4144c:	39c00054 	ori	r7,r7,1
   41450:	e100ffc4 	addi	r4,fp,1023
   41454:	01005c0e 	bge	zero,r4,415c8 <__divdf3+0x60c>
   41458:	388001cc 	andi	r2,r7,7
   4145c:	1000e41e 	bne	r2,zero,417f0 <__divdf3+0x834>
   41460:	8080402c 	andhi	r2,r16,256
   41464:	10000426 	beq	r2,zero,41478 <__divdf3+0x4bc>
   41468:	00bfc034 	movhi	r2,65280
   4146c:	10bfffc4 	addi	r2,r2,-1
   41470:	80a0703a 	and	r16,r16,r2
   41474:	e1010004 	addi	r4,fp,1024
   41478:	2081ffc8 	cmpgei	r2,r4,2047
   4147c:	103f351e 	bne	r2,zero,41154 <__divdf3+0x198>
   41480:	380ed0fa 	srli	r7,r7,3
   41484:	8024977a 	slli	r18,r16,29
   41488:	8022927a 	slli	r17,r16,9
   4148c:	2101ffcc 	andi	r4,r4,2047
   41490:	91e8b03a 	or	r20,r18,r7
   41494:	8822d33a 	srli	r17,r17,12
   41498:	003f1d06 	br	41110 <__divdf3+0x154>
   4149c:	854eb03a 	or	r7,r16,r21
   414a0:	38003e26 	beq	r7,zero,4159c <__divdf3+0x5e0>
   414a4:	80008f26 	beq	r16,zero,416e4 <__divdf3+0x728>
   414a8:	8009883a 	mov	r4,r16
   414ac:	0041bf00 	call	41bf0 <__clzsi2>
   414b0:	117ffd44 	addi	r5,r2,-11
   414b4:	01000744 	movi	r4,29
   414b8:	11fffe04 	addi	r7,r2,-8
   414bc:	2149c83a 	sub	r4,r4,r5
   414c0:	81e0983a 	sll	r16,r16,r7
   414c4:	a908d83a 	srl	r4,r21,r4
   414c8:	a9ce983a 	sll	r7,r21,r7
   414cc:	2420b03a 	or	r16,r4,r16
   414d0:	1705883a 	add	r2,r2,fp
   414d4:	1700fcc4 	addi	fp,r2,1011
   414d8:	0009883a 	mov	r4,zero
   414dc:	003ee706 	br	4107c <__divdf3+0xc0>
   414e0:	24a2b03a 	or	r17,r4,r18
   414e4:	2027883a 	mov	r19,r4
   414e8:	88002726 	beq	r17,zero,41588 <__divdf3+0x5cc>
   414ec:	90007326 	beq	r18,zero,416bc <__divdf3+0x700>
   414f0:	9009883a 	mov	r4,r18
   414f4:	0041bf00 	call	41bf0 <__clzsi2>
   414f8:	10fffd44 	addi	r3,r2,-11
   414fc:	04400744 	movi	r17,29
   41500:	153ffe04 	addi	r20,r2,-8
   41504:	88e3c83a 	sub	r17,r17,r3
   41508:	950a983a 	sll	r5,r18,r20
   4150c:	9c62d83a 	srl	r17,r19,r17
   41510:	9d28983a 	sll	r20,r19,r20
   41514:	8962b03a 	or	r17,r17,r5
   41518:	00ff0344 	movi	r3,-1011
   4151c:	18b9c83a 	sub	fp,r3,r2
   41520:	0027883a 	mov	r19,zero
   41524:	0025883a 	mov	r18,zero
   41528:	003ec306 	br	41038 <__divdf3+0x7c>
   4152c:	24a2b03a 	or	r17,r4,r18
   41530:	8800101e 	bne	r17,zero,41574 <__divdf3+0x5b8>
   41534:	0029883a 	mov	r20,zero
   41538:	04c00204 	movi	r19,8
   4153c:	0701ffc4 	movi	fp,2047
   41540:	04800084 	movi	r18,2
   41544:	003ebc06 	br	41038 <__divdf3+0x7c>
   41548:	854eb03a 	or	r7,r16,r21
   4154c:	e73e0044 	addi	fp,fp,-2047
   41550:	3800041e 	bne	r7,zero,41564 <__divdf3+0x5a8>
   41554:	9cc00094 	ori	r19,r19,2
   41558:	0021883a 	mov	r16,zero
   4155c:	01000084 	movi	r4,2
   41560:	003ec606 	br	4107c <__divdf3+0xc0>
   41564:	9cc000d4 	ori	r19,r19,3
   41568:	a80f883a 	mov	r7,r21
   4156c:	010000c4 	movi	r4,3
   41570:	003ec206 	br	4107c <__divdf3+0xc0>
   41574:	9023883a 	mov	r17,r18
   41578:	04c00304 	movi	r19,12
   4157c:	0701ffc4 	movi	fp,2047
   41580:	048000c4 	movi	r18,3
   41584:	003eac06 	br	41038 <__divdf3+0x7c>
   41588:	0029883a 	mov	r20,zero
   4158c:	04c00104 	movi	r19,4
   41590:	0039883a 	mov	fp,zero
   41594:	04800044 	movi	r18,1
   41598:	003ea706 	br	41038 <__divdf3+0x7c>
   4159c:	9cc00054 	ori	r19,r19,1
   415a0:	0021883a 	mov	r16,zero
   415a4:	01000044 	movi	r4,1
   415a8:	003eb406 	br	4107c <__divdf3+0xc0>
   415ac:	04400434 	movhi	r17,16
   415b0:	002b883a 	mov	r21,zero
   415b4:	8c7fffc4 	addi	r17,r17,-1
   415b8:	053fffc4 	movi	r20,-1
   415bc:	0101ffc4 	movi	r4,2047
   415c0:	003ed306 	br	41110 <__divdf3+0x154>
   415c4:	01ffffc4 	movi	r7,-1
   415c8:	00800044 	movi	r2,1
   415cc:	1105c83a 	sub	r2,r2,r4
   415d0:	11400e48 	cmpgei	r5,r2,57
   415d4:	283ecb1e 	bne	r5,zero,41104 <__divdf3+0x148>
   415d8:	11400808 	cmpgei	r5,r2,32
   415dc:	2800671e 	bne	r5,zero,4177c <__divdf3+0x7c0>
   415e0:	e0c10784 	addi	r3,fp,1054
   415e4:	80e4983a 	sll	r18,r16,r3
   415e8:	3888d83a 	srl	r4,r7,r2
   415ec:	38c6983a 	sll	r3,r7,r3
   415f0:	80a0d83a 	srl	r16,r16,r2
   415f4:	9124b03a 	or	r18,r18,r4
   415f8:	1806c03a 	cmpne	r3,r3,zero
   415fc:	90e4b03a 	or	r18,r18,r3
   41600:	908001cc 	andi	r2,r18,7
   41604:	10000726 	beq	r2,zero,41624 <__divdf3+0x668>
   41608:	908003cc 	andi	r2,r18,15
   4160c:	10800120 	cmpeqi	r2,r2,4
   41610:	1000041e 	bne	r2,zero,41624 <__divdf3+0x668>
   41614:	90800104 	addi	r2,r18,4
   41618:	14a5803a 	cmpltu	r18,r2,r18
   4161c:	84a1883a 	add	r16,r16,r18
   41620:	1025883a 	mov	r18,r2
   41624:	8080202c 	andhi	r2,r16,128
   41628:	10008f26 	beq	r2,zero,41868 <__divdf3+0x8ac>
   4162c:	01000044 	movi	r4,1
   41630:	0023883a 	mov	r17,zero
   41634:	0029883a 	mov	r20,zero
   41638:	003eb506 	br	41110 <__divdf3+0x154>
   4163c:	8880022c 	andhi	r2,r17,8
   41640:	10000926 	beq	r2,zero,41668 <__divdf3+0x6ac>
   41644:	8080022c 	andhi	r2,r16,8
   41648:	1000071e 	bne	r2,zero,41668 <__divdf3+0x6ac>
   4164c:	00800434 	movhi	r2,16
   41650:	84400234 	orhi	r17,r16,8
   41654:	10bfffc4 	addi	r2,r2,-1
   41658:	88a2703a 	and	r17,r17,r2
   4165c:	b82b883a 	mov	r21,r23
   41660:	3829883a 	mov	r20,r7
   41664:	003fd506 	br	415bc <__divdf3+0x600>
   41668:	00800434 	movhi	r2,16
   4166c:	8c400234 	orhi	r17,r17,8
   41670:	10bfffc4 	addi	r2,r2,-1
   41674:	88a2703a 	and	r17,r17,r2
   41678:	b02b883a 	mov	r21,r22
   4167c:	003fcf06 	br	415bc <__divdf3+0x600>
   41680:	203f7326 	beq	r4,zero,41450 <__divdf3+0x494>
   41684:	9d11883a 	add	r8,r19,r20
   41688:	38bfffc4 	addi	r2,r7,-1
   4168c:	44c04c36 	bltu	r8,r19,417c0 <__divdf3+0x804>
   41690:	41406736 	bltu	r8,r5,41830 <__divdf3+0x874>
   41694:	41407e26 	beq	r8,r5,41890 <__divdf3+0x8d4>
   41698:	100f883a 	mov	r7,r2
   4169c:	003f6b06 	br	4144c <__divdf3+0x490>
   416a0:	a1feb436 	bltu	r20,r7,41174 <__divdf3+0x1b8>
   416a4:	880897fa 	slli	r4,r17,31
   416a8:	a004d07a 	srli	r2,r20,1
   416ac:	8822d07a 	srli	r17,r17,1
   416b0:	a02897fa 	slli	r20,r20,31
   416b4:	20a4b03a 	or	r18,r4,r2
   416b8:	003eb106 	br	41180 <__divdf3+0x1c4>
   416bc:	0041bf00 	call	41bf0 <__clzsi2>
   416c0:	10c00544 	addi	r3,r2,21
   416c4:	19000748 	cmpgei	r4,r3,29
   416c8:	1023883a 	mov	r17,r2
   416cc:	10800804 	addi	r2,r2,32
   416d0:	203f8a26 	beq	r4,zero,414fc <__divdf3+0x540>
   416d4:	8c7ffe04 	addi	r17,r17,-8
   416d8:	a462983a 	sll	r17,r20,r17
   416dc:	0029883a 	mov	r20,zero
   416e0:	003f8d06 	br	41518 <__divdf3+0x55c>
   416e4:	a809883a 	mov	r4,r21
   416e8:	0041bf00 	call	41bf0 <__clzsi2>
   416ec:	11400544 	addi	r5,r2,21
   416f0:	29800748 	cmpgei	r6,r5,29
   416f4:	1009883a 	mov	r4,r2
   416f8:	10800804 	addi	r2,r2,32
   416fc:	303f6d26 	beq	r6,zero,414b4 <__divdf3+0x4f8>
   41700:	213ffe04 	addi	r4,r4,-8
   41704:	a920983a 	sll	r16,r21,r4
   41708:	000f883a 	mov	r7,zero
   4170c:	003f7006 	br	414d0 <__divdf3+0x514>
   41710:	44d1883a 	add	r8,r8,r19
   41714:	48bfffc4 	addi	r2,r9,-1
   41718:	44c03c36 	bltu	r8,r19,4180c <__divdf3+0x850>
   4171c:	45003b2e 	bgeu	r8,r20,4180c <__divdf3+0x850>
   41720:	4a7fff84 	addi	r9,r9,-2
   41724:	44d1883a 	add	r8,r8,r19
   41728:	003f2006 	br	413ac <__divdf3+0x3f0>
   4172c:	d8c00217 	ldw	r3,8(sp)
   41730:	24c9883a 	add	r4,r4,r19
   41734:	18bfffc4 	addi	r2,r3,-1
   41738:	24c03236 	bltu	r4,r19,41804 <__divdf3+0x848>
   4173c:	2500312e 	bgeu	r4,r20,41804 <__divdf3+0x848>
   41740:	18bfff84 	addi	r2,r3,-2
   41744:	d8800215 	stw	r2,8(sp)
   41748:	24c9883a 	add	r4,r4,r19
   4174c:	003f0606 	br	41368 <__divdf3+0x3ac>
   41750:	9a3ef01e 	bne	r19,r8,41314 <__divdf3+0x358>
   41754:	a47eef36 	bltu	r20,r17,41314 <__divdf3+0x358>
   41758:	003eec06 	br	4130c <__divdf3+0x350>
   4175c:	3a7eb92e 	bgeu	r7,r9,41244 <__divdf3+0x288>
   41760:	423fff84 	addi	r8,r8,-2
   41764:	3ccf883a 	add	r7,r7,r19
   41768:	003eb706 	br	41248 <__divdf3+0x28c>
   4176c:	25be9f2e 	bgeu	r4,r22,411ec <__divdf3+0x230>
   41770:	843fff84 	addi	r16,r16,-2
   41774:	24c9883a 	add	r4,r4,r19
   41778:	003e9d06 	br	411f0 <__divdf3+0x234>
   4177c:	017ff844 	movi	r5,-31
   41780:	2909c83a 	sub	r4,r5,r4
   41784:	10800820 	cmpeqi	r2,r2,32
   41788:	8108d83a 	srl	r4,r16,r4
   4178c:	1000031e 	bne	r2,zero,4179c <__divdf3+0x7e0>
   41790:	e0c10f84 	addi	r3,fp,1086
   41794:	80c6983a 	sll	r3,r16,r3
   41798:	38ceb03a 	or	r7,r7,r3
   4179c:	3824c03a 	cmpne	r18,r7,zero
   417a0:	9124b03a 	or	r18,r18,r4
   417a4:	940001cc 	andi	r16,r18,7
   417a8:	8000291e 	bne	r16,zero,41850 <__divdf3+0x894>
   417ac:	0023883a 	mov	r17,zero
   417b0:	9024d0fa 	srli	r18,r18,3
   417b4:	0009883a 	mov	r4,zero
   417b8:	9428b03a 	or	r20,r18,r16
   417bc:	003e5406 	br	41110 <__divdf3+0x154>
   417c0:	100f883a 	mov	r7,r2
   417c4:	417f211e 	bne	r8,r5,4144c <__divdf3+0x490>
   417c8:	247f201e 	bne	r4,r17,4144c <__divdf3+0x490>
   417cc:	003f2006 	br	41450 <__divdf3+0x494>
   417d0:	e0bf0088 	cmpgei	r2,fp,-1022
   417d4:	e100ffc4 	addi	r4,fp,1023
   417d8:	103f7a26 	beq	r2,zero,415c4 <__divdf3+0x608>
   417dc:	00bfffc4 	movi	r2,-1
   417e0:	11c00104 	addi	r7,r2,4
   417e4:	3885803a 	cmpltu	r2,r7,r2
   417e8:	80a1883a 	add	r16,r16,r2
   417ec:	003f1c06 	br	41460 <__divdf3+0x4a4>
   417f0:	388003cc 	andi	r2,r7,15
   417f4:	10800120 	cmpeqi	r2,r2,4
   417f8:	103f191e 	bne	r2,zero,41460 <__divdf3+0x4a4>
   417fc:	3805883a 	mov	r2,r7
   41800:	003ff706 	br	417e0 <__divdf3+0x824>
   41804:	d8800215 	stw	r2,8(sp)
   41808:	003ed706 	br	41368 <__divdf3+0x3ac>
   4180c:	1013883a 	mov	r9,r2
   41810:	003ee606 	br	413ac <__divdf3+0x3f0>
   41814:	a1febf2e 	bgeu	r20,r7,41314 <__divdf3+0x358>
   41818:	a469883a 	add	r20,r20,r17
   4181c:	a449803a 	cmpltu	r4,r20,r17
   41820:	24c9883a 	add	r4,r4,r19
   41824:	843fff84 	addi	r16,r16,-2
   41828:	4111883a 	add	r8,r8,r4
   4182c:	003eba06 	br	41318 <__divdf3+0x35c>
   41830:	8c45883a 	add	r2,r17,r17
   41834:	1463803a 	cmpltu	r17,r2,r17
   41838:	8ce3883a 	add	r17,r17,r19
   4183c:	4451883a 	add	r8,r8,r17
   41840:	39ffff84 	addi	r7,r7,-2
   41844:	1023883a 	mov	r17,r2
   41848:	417fdf26 	beq	r8,r5,417c8 <__divdf3+0x80c>
   4184c:	003eff06 	br	4144c <__divdf3+0x490>
   41850:	908003cc 	andi	r2,r18,15
   41854:	10800120 	cmpeqi	r2,r2,4
   41858:	1000111e 	bne	r2,zero,418a0 <__divdf3+0x8e4>
   4185c:	90800104 	addi	r2,r18,4
   41860:	14a1803a 	cmpltu	r16,r2,r18
   41864:	1025883a 	mov	r18,r2
   41868:	8022927a 	slli	r17,r16,9
   4186c:	8020977a 	slli	r16,r16,29
   41870:	8822d33a 	srli	r17,r17,12
   41874:	003fce06 	br	417b0 <__divdf3+0x7f4>
   41878:	00800434 	movhi	r2,16
   4187c:	84400234 	orhi	r17,r16,8
   41880:	10bfffc4 	addi	r2,r2,-1
   41884:	88a2703a 	and	r17,r17,r2
   41888:	3829883a 	mov	r20,r7
   4188c:	003f4b06 	br	415bc <__divdf3+0x600>
   41890:	893fe736 	bltu	r17,r4,41830 <__divdf3+0x874>
   41894:	100f883a 	mov	r7,r2
   41898:	247eec1e 	bne	r4,r17,4144c <__divdf3+0x490>
   4189c:	003eec06 	br	41450 <__divdf3+0x494>
   418a0:	0021883a 	mov	r16,zero
   418a4:	003ff006 	br	41868 <__divdf3+0x8ac>

000418a8 <__floatsidf>:
   418a8:	defffd04 	addi	sp,sp,-12
   418ac:	dfc00215 	stw	ra,8(sp)
   418b0:	dc400115 	stw	r17,4(sp)
   418b4:	dc000015 	stw	r16,0(sp)
   418b8:	20001326 	beq	r4,zero,41908 <__floatsidf+0x60>
   418bc:	2022d7fa 	srli	r17,r4,31
   418c0:	2021883a 	mov	r16,r4
   418c4:	20002416 	blt	r4,zero,41958 <__floatsidf+0xb0>
   418c8:	8009883a 	mov	r4,r16
   418cc:	0041bf00 	call	41bf0 <__clzsi2>
   418d0:	01010784 	movi	r4,1054
   418d4:	2089c83a 	sub	r4,r4,r2
   418d8:	10c002c8 	cmpgei	r3,r2,11
   418dc:	2101ffcc 	andi	r4,r4,2047
   418e0:	1800161e 	bne	r3,zero,4193c <__floatsidf+0x94>
   418e4:	014002c4 	movi	r5,11
   418e8:	288bc83a 	sub	r5,r5,r2
   418ec:	814ad83a 	srl	r5,r16,r5
   418f0:	00c00434 	movhi	r3,16
   418f4:	10800544 	addi	r2,r2,21
   418f8:	18ffffc4 	addi	r3,r3,-1
   418fc:	8084983a 	sll	r2,r16,r2
   41900:	28ca703a 	and	r5,r5,r3
   41904:	00000406 	br	41918 <__floatsidf+0x70>
   41908:	0023883a 	mov	r17,zero
   4190c:	0009883a 	mov	r4,zero
   41910:	000b883a 	mov	r5,zero
   41914:	0005883a 	mov	r2,zero
   41918:	2008953a 	slli	r4,r4,20
   4191c:	880697fa 	slli	r3,r17,31
   41920:	2148b03a 	or	r4,r4,r5
   41924:	20c6b03a 	or	r3,r4,r3
   41928:	dfc00217 	ldw	ra,8(sp)
   4192c:	dc400117 	ldw	r17,4(sp)
   41930:	dc000017 	ldw	r16,0(sp)
   41934:	dec00304 	addi	sp,sp,12
   41938:	f800283a 	ret
   4193c:	10bffd44 	addi	r2,r2,-11
   41940:	808a983a 	sll	r5,r16,r2
   41944:	00800434 	movhi	r2,16
   41948:	10bfffc4 	addi	r2,r2,-1
   4194c:	288a703a 	and	r5,r5,r2
   41950:	0005883a 	mov	r2,zero
   41954:	003ff006 	br	41918 <__floatsidf+0x70>
   41958:	0121c83a 	sub	r16,zero,r4
   4195c:	003fda06 	br	418c8 <__floatsidf+0x20>

00041960 <__extendsfdf2>:
   41960:	200ad5fa 	srli	r5,r4,23
   41964:	defffd04 	addi	sp,sp,-12
   41968:	dc000015 	stw	r16,0(sp)
   4196c:	29403fcc 	andi	r5,r5,255
   41970:	04002034 	movhi	r16,128
   41974:	28800044 	addi	r2,r5,1
   41978:	dc400115 	stw	r17,4(sp)
   4197c:	843fffc4 	addi	r16,r16,-1
   41980:	dfc00215 	stw	ra,8(sp)
   41984:	10803f8c 	andi	r2,r2,254
   41988:	2022d7fa 	srli	r17,r4,31
   4198c:	8120703a 	and	r16,r16,r4
   41990:	10000d26 	beq	r2,zero,419c8 <__extendsfdf2+0x68>
   41994:	8008d0fa 	srli	r4,r16,3
   41998:	8020977a 	slli	r16,r16,29
   4199c:	2940e004 	addi	r5,r5,896
   419a0:	280a953a 	slli	r5,r5,20
   419a4:	880697fa 	slli	r3,r17,31
   419a8:	8005883a 	mov	r2,r16
   419ac:	290ab03a 	or	r5,r5,r4
   419b0:	28c6b03a 	or	r3,r5,r3
   419b4:	dfc00217 	ldw	ra,8(sp)
   419b8:	dc400117 	ldw	r17,4(sp)
   419bc:	dc000017 	ldw	r16,0(sp)
   419c0:	dec00304 	addi	sp,sp,12
   419c4:	f800283a 	ret
   419c8:	2800111e 	bne	r5,zero,41a10 <__extendsfdf2+0xb0>
   419cc:	80001926 	beq	r16,zero,41a34 <__extendsfdf2+0xd4>
   419d0:	8009883a 	mov	r4,r16
   419d4:	0041bf00 	call	41bf0 <__clzsi2>
   419d8:	10c002c8 	cmpgei	r3,r2,11
   419dc:	18001b1e 	bne	r3,zero,41a4c <__extendsfdf2+0xec>
   419e0:	010002c4 	movi	r4,11
   419e4:	2089c83a 	sub	r4,r4,r2
   419e8:	10c00544 	addi	r3,r2,21
   419ec:	8108d83a 	srl	r4,r16,r4
   419f0:	80e0983a 	sll	r16,r16,r3
   419f4:	00c00434 	movhi	r3,16
   419f8:	0140e244 	movi	r5,905
   419fc:	18ffffc4 	addi	r3,r3,-1
   41a00:	288bc83a 	sub	r5,r5,r2
   41a04:	20c8703a 	and	r4,r4,r3
   41a08:	2941ffcc 	andi	r5,r5,2047
   41a0c:	003fe406 	br	419a0 <__extendsfdf2+0x40>
   41a10:	80000b26 	beq	r16,zero,41a40 <__extendsfdf2+0xe0>
   41a14:	8008d0fa 	srli	r4,r16,3
   41a18:	00800434 	movhi	r2,16
   41a1c:	10bfffc4 	addi	r2,r2,-1
   41a20:	21000234 	orhi	r4,r4,8
   41a24:	8020977a 	slli	r16,r16,29
   41a28:	2088703a 	and	r4,r4,r2
   41a2c:	0141ffc4 	movi	r5,2047
   41a30:	003fdb06 	br	419a0 <__extendsfdf2+0x40>
   41a34:	000b883a 	mov	r5,zero
   41a38:	0009883a 	mov	r4,zero
   41a3c:	003fd806 	br	419a0 <__extendsfdf2+0x40>
   41a40:	0141ffc4 	movi	r5,2047
   41a44:	0009883a 	mov	r4,zero
   41a48:	003fd506 	br	419a0 <__extendsfdf2+0x40>
   41a4c:	113ffd44 	addi	r4,r2,-11
   41a50:	8108983a 	sll	r4,r16,r4
   41a54:	0021883a 	mov	r16,zero
   41a58:	003fe606 	br	419f4 <__extendsfdf2+0x94>

00041a5c <__truncdfsf2>:
   41a5c:	280ed53a 	srli	r7,r5,20
   41a60:	00800434 	movhi	r2,16
   41a64:	10bfffc4 	addi	r2,r2,-1
   41a68:	2884703a 	and	r2,r5,r2
   41a6c:	100490fa 	slli	r2,r2,3
   41a70:	2006d77a 	srli	r3,r4,29
   41a74:	39c1ffcc 	andi	r7,r7,2047
   41a78:	3a000044 	addi	r8,r7,1
   41a7c:	4201ff8c 	andi	r8,r8,2046
   41a80:	280ad7fa 	srli	r5,r5,31
   41a84:	201290fa 	slli	r9,r4,3
   41a88:	188cb03a 	or	r6,r3,r2
   41a8c:	40000b26 	beq	r8,zero,41abc <__truncdfsf2+0x60>
   41a90:	38ff2004 	addi	r3,r7,-896
   41a94:	18803fc8 	cmpgei	r2,r3,255
   41a98:	10001126 	beq	r2,zero,41ae0 <__truncdfsf2+0x84>
   41a9c:	00ffffc4 	movi	r3,-1
   41aa0:	0009883a 	mov	r4,zero
   41aa4:	18803fcc 	andi	r2,r3,255
   41aa8:	100495fa 	slli	r2,r2,23
   41aac:	280a97fa 	slli	r5,r5,31
   41ab0:	1104b03a 	or	r2,r2,r4
   41ab4:	1144b03a 	or	r2,r2,r5
   41ab8:	f800283a 	ret
   41abc:	3800031e 	bne	r7,zero,41acc <__truncdfsf2+0x70>
   41ac0:	0007883a 	mov	r3,zero
   41ac4:	0009883a 	mov	r4,zero
   41ac8:	003ff606 	br	41aa4 <__truncdfsf2+0x48>
   41acc:	3252b03a 	or	r9,r6,r9
   41ad0:	483ff226 	beq	r9,zero,41a9c <__truncdfsf2+0x40>
   41ad4:	31001034 	orhi	r4,r6,64
   41ad8:	00ffffc4 	movi	r3,-1
   41adc:	003ff106 	br	41aa4 <__truncdfsf2+0x48>
   41ae0:	00c0110e 	bge	zero,r3,41b28 <__truncdfsf2+0xcc>
   41ae4:	200491ba 	slli	r2,r4,6
   41ae8:	300890fa 	slli	r4,r6,3
   41aec:	4812d77a 	srli	r9,r9,29
   41af0:	1004c03a 	cmpne	r2,r2,zero
   41af4:	1104b03a 	or	r2,r2,r4
   41af8:	1244b03a 	or	r2,r2,r9
   41afc:	110001cc 	andi	r4,r2,7
   41b00:	20003326 	beq	r4,zero,41bd0 <__truncdfsf2+0x174>
   41b04:	110003cc 	andi	r4,r2,15
   41b08:	21000118 	cmpnei	r4,r4,4
   41b0c:	20003226 	beq	r4,zero,41bd8 <__truncdfsf2+0x17c>
   41b10:	10800104 	addi	r2,r2,4
   41b14:	1101002c 	andhi	r4,r2,1024
   41b18:	20003326 	beq	r4,zero,41be8 <__truncdfsf2+0x18c>
   41b1c:	18c00044 	addi	r3,r3,1
   41b20:	0009883a 	mov	r4,zero
   41b24:	003fdf06 	br	41aa4 <__truncdfsf2+0x48>
   41b28:	18bffa50 	cmplti	r2,r3,-23
   41b2c:	103fe41e 	bne	r2,zero,41ac0 <__truncdfsf2+0x64>
   41b30:	00800784 	movi	r2,30
   41b34:	10c5c83a 	sub	r2,r2,r3
   41b38:	12000808 	cmpgei	r8,r2,32
   41b3c:	31002034 	orhi	r4,r6,128
   41b40:	40001526 	beq	r8,zero,41b98 <__truncdfsf2+0x13c>
   41b44:	01bfff84 	movi	r6,-2
   41b48:	30c7c83a 	sub	r3,r6,r3
   41b4c:	10800820 	cmpeqi	r2,r2,32
   41b50:	20c6d83a 	srl	r3,r4,r3
   41b54:	1000031e 	bne	r2,zero,41b64 <__truncdfsf2+0x108>
   41b58:	39ff2884 	addi	r7,r7,-862
   41b5c:	21c8983a 	sll	r4,r4,r7
   41b60:	4912b03a 	or	r9,r9,r4
   41b64:	4804c03a 	cmpne	r2,r9,zero
   41b68:	10c4b03a 	or	r2,r2,r3
   41b6c:	10c001cc 	andi	r3,r2,7
   41b70:	18001326 	beq	r3,zero,41bc0 <__truncdfsf2+0x164>
   41b74:	10c003cc 	andi	r3,r2,15
   41b78:	18c00120 	cmpeqi	r3,r3,4
   41b7c:	18001926 	beq	r3,zero,41be4 <__truncdfsf2+0x188>
   41b80:	1004d0fa 	srli	r2,r2,3
   41b84:	0007883a 	mov	r3,zero
   41b88:	01002034 	movhi	r4,128
   41b8c:	213fffc4 	addi	r4,r4,-1
   41b90:	1108703a 	and	r4,r2,r4
   41b94:	003fc306 	br	41aa4 <__truncdfsf2+0x48>
   41b98:	39ff2084 	addi	r7,r7,-894
   41b9c:	49c6983a 	sll	r3,r9,r7
   41ba0:	21c8983a 	sll	r4,r4,r7
   41ba4:	4884d83a 	srl	r2,r9,r2
   41ba8:	1806c03a 	cmpne	r3,r3,zero
   41bac:	1906b03a 	or	r3,r3,r4
   41bb0:	10c4b03a 	or	r2,r2,r3
   41bb4:	110001cc 	andi	r4,r2,7
   41bb8:	0007883a 	mov	r3,zero
   41bbc:	203fd11e 	bne	r4,zero,41b04 <__truncdfsf2+0xa8>
   41bc0:	100491ba 	slli	r2,r2,6
   41bc4:	0007883a 	mov	r3,zero
   41bc8:	1008d27a 	srli	r4,r2,9
   41bcc:	003fb506 	br	41aa4 <__truncdfsf2+0x48>
   41bd0:	1008d0fa 	srli	r4,r2,3
   41bd4:	003fb306 	br	41aa4 <__truncdfsf2+0x48>
   41bd8:	100491ba 	slli	r2,r2,6
   41bdc:	1008d27a 	srli	r4,r2,9
   41be0:	003fb006 	br	41aa4 <__truncdfsf2+0x48>
   41be4:	10800104 	addi	r2,r2,4
   41be8:	1004d0fa 	srli	r2,r2,3
   41bec:	003fe606 	br	41b88 <__truncdfsf2+0x12c>

00041bf0 <__clzsi2>:
   41bf0:	00bfffd4 	movui	r2,65535
   41bf4:	11000a36 	bltu	r2,r4,41c20 <__clzsi2+0x30>
   41bf8:	20c04028 	cmpgeui	r3,r4,256
   41bfc:	180690fa 	slli	r3,r3,3
   41c00:	00800804 	movi	r2,32
   41c04:	10c5c83a 	sub	r2,r2,r3
   41c08:	20c8d83a 	srl	r4,r4,r3
   41c0c:	00c00174 	movhi	r3,5
   41c10:	20c7883a 	add	r3,r4,r3
   41c14:	18c15903 	ldbu	r3,1380(r3)
   41c18:	10c5c83a 	sub	r2,r2,r3
   41c1c:	f800283a 	ret
   41c20:	00804034 	movhi	r2,256
   41c24:	2080032e 	bgeu	r4,r2,41c34 <__clzsi2+0x44>
   41c28:	00800404 	movi	r2,16
   41c2c:	00c00404 	movi	r3,16
   41c30:	003ff506 	br	41c08 <__clzsi2+0x18>
   41c34:	00800204 	movi	r2,8
   41c38:	00c00604 	movi	r3,24
   41c3c:	003ff206 	br	41c08 <__clzsi2+0x18>

00041c40 <__divsi3>:
   41c40:	20001a16 	blt	r4,zero,41cac <__divsi3+0x6c>
   41c44:	000f883a 	mov	r7,zero
   41c48:	2800020e 	bge	r5,zero,41c54 <__divsi3+0x14>
   41c4c:	014bc83a 	sub	r5,zero,r5
   41c50:	39c0005c 	xori	r7,r7,1
   41c54:	200d883a 	mov	r6,r4
   41c58:	00c00044 	movi	r3,1
   41c5c:	2900092e 	bgeu	r5,r4,41c84 <__divsi3+0x44>
   41c60:	00800804 	movi	r2,32
   41c64:	00c00044 	movi	r3,1
   41c68:	00000106 	br	41c70 <__divsi3+0x30>
   41c6c:	10001226 	beq	r2,zero,41cb8 <__divsi3+0x78>
   41c70:	294b883a 	add	r5,r5,r5
   41c74:	10bfffc4 	addi	r2,r2,-1
   41c78:	18c7883a 	add	r3,r3,r3
   41c7c:	293ffb36 	bltu	r5,r4,41c6c <__divsi3+0x2c>
   41c80:	18000d26 	beq	r3,zero,41cb8 <__divsi3+0x78>
   41c84:	0005883a 	mov	r2,zero
   41c88:	31400236 	bltu	r6,r5,41c94 <__divsi3+0x54>
   41c8c:	314dc83a 	sub	r6,r6,r5
   41c90:	10c4b03a 	or	r2,r2,r3
   41c94:	1806d07a 	srli	r3,r3,1
   41c98:	280ad07a 	srli	r5,r5,1
   41c9c:	183ffa1e 	bne	r3,zero,41c88 <__divsi3+0x48>
   41ca0:	38000126 	beq	r7,zero,41ca8 <__divsi3+0x68>
   41ca4:	0085c83a 	sub	r2,zero,r2
   41ca8:	f800283a 	ret
   41cac:	0109c83a 	sub	r4,zero,r4
   41cb0:	01c00044 	movi	r7,1
   41cb4:	003fe406 	br	41c48 <__divsi3+0x8>
   41cb8:	0005883a 	mov	r2,zero
   41cbc:	003ff806 	br	41ca0 <__divsi3+0x60>

00041cc0 <__modsi3>:
   41cc0:	20001716 	blt	r4,zero,41d20 <__modsi3+0x60>
   41cc4:	000f883a 	mov	r7,zero
   41cc8:	2005883a 	mov	r2,r4
   41ccc:	2800010e 	bge	r5,zero,41cd4 <__modsi3+0x14>
   41cd0:	014bc83a 	sub	r5,zero,r5
   41cd4:	00c00044 	movi	r3,1
   41cd8:	2900092e 	bgeu	r5,r4,41d00 <__modsi3+0x40>
   41cdc:	01800804 	movi	r6,32
   41ce0:	00c00044 	movi	r3,1
   41ce4:	00000106 	br	41cec <__modsi3+0x2c>
   41ce8:	30001026 	beq	r6,zero,41d2c <__modsi3+0x6c>
   41cec:	294b883a 	add	r5,r5,r5
   41cf0:	31bfffc4 	addi	r6,r6,-1
   41cf4:	18c7883a 	add	r3,r3,r3
   41cf8:	293ffb36 	bltu	r5,r4,41ce8 <__modsi3+0x28>
   41cfc:	18000b26 	beq	r3,zero,41d2c <__modsi3+0x6c>
   41d00:	1806d07a 	srli	r3,r3,1
   41d04:	11400136 	bltu	r2,r5,41d0c <__modsi3+0x4c>
   41d08:	1145c83a 	sub	r2,r2,r5
   41d0c:	280ad07a 	srli	r5,r5,1
   41d10:	183ffb1e 	bne	r3,zero,41d00 <__modsi3+0x40>
   41d14:	38000126 	beq	r7,zero,41d1c <__modsi3+0x5c>
   41d18:	0085c83a 	sub	r2,zero,r2
   41d1c:	f800283a 	ret
   41d20:	0109c83a 	sub	r4,zero,r4
   41d24:	01c00044 	movi	r7,1
   41d28:	003fe706 	br	41cc8 <__modsi3+0x8>
   41d2c:	2005883a 	mov	r2,r4
   41d30:	003ff806 	br	41d14 <__modsi3+0x54>

00041d34 <__udivsi3>:
   41d34:	200d883a 	mov	r6,r4
   41d38:	2900152e 	bgeu	r5,r4,41d90 <__udivsi3+0x5c>
   41d3c:	28001416 	blt	r5,zero,41d90 <__udivsi3+0x5c>
   41d40:	00800804 	movi	r2,32
   41d44:	00c00044 	movi	r3,1
   41d48:	00000206 	br	41d54 <__udivsi3+0x20>
   41d4c:	10000e26 	beq	r2,zero,41d88 <__udivsi3+0x54>
   41d50:	28000416 	blt	r5,zero,41d64 <__udivsi3+0x30>
   41d54:	294b883a 	add	r5,r5,r5
   41d58:	10bfffc4 	addi	r2,r2,-1
   41d5c:	18c7883a 	add	r3,r3,r3
   41d60:	293ffa36 	bltu	r5,r4,41d4c <__udivsi3+0x18>
   41d64:	18000826 	beq	r3,zero,41d88 <__udivsi3+0x54>
   41d68:	0005883a 	mov	r2,zero
   41d6c:	31400236 	bltu	r6,r5,41d78 <__udivsi3+0x44>
   41d70:	314dc83a 	sub	r6,r6,r5
   41d74:	10c4b03a 	or	r2,r2,r3
   41d78:	1806d07a 	srli	r3,r3,1
   41d7c:	280ad07a 	srli	r5,r5,1
   41d80:	183ffa1e 	bne	r3,zero,41d6c <__udivsi3+0x38>
   41d84:	f800283a 	ret
   41d88:	0005883a 	mov	r2,zero
   41d8c:	f800283a 	ret
   41d90:	00c00044 	movi	r3,1
   41d94:	003ff406 	br	41d68 <__udivsi3+0x34>

00041d98 <__umodsi3>:
   41d98:	2005883a 	mov	r2,r4
   41d9c:	2900132e 	bgeu	r5,r4,41dec <__umodsi3+0x54>
   41da0:	28001216 	blt	r5,zero,41dec <__umodsi3+0x54>
   41da4:	01800804 	movi	r6,32
   41da8:	00c00044 	movi	r3,1
   41dac:	00000206 	br	41db8 <__umodsi3+0x20>
   41db0:	30000c26 	beq	r6,zero,41de4 <__umodsi3+0x4c>
   41db4:	28000416 	blt	r5,zero,41dc8 <__umodsi3+0x30>
   41db8:	294b883a 	add	r5,r5,r5
   41dbc:	31bfffc4 	addi	r6,r6,-1
   41dc0:	18c7883a 	add	r3,r3,r3
   41dc4:	293ffa36 	bltu	r5,r4,41db0 <__umodsi3+0x18>
   41dc8:	18000626 	beq	r3,zero,41de4 <__umodsi3+0x4c>
   41dcc:	1806d07a 	srli	r3,r3,1
   41dd0:	11400136 	bltu	r2,r5,41dd8 <__umodsi3+0x40>
   41dd4:	1145c83a 	sub	r2,r2,r5
   41dd8:	280ad07a 	srli	r5,r5,1
   41ddc:	183ffb1e 	bne	r3,zero,41dcc <__umodsi3+0x34>
   41de0:	f800283a 	ret
   41de4:	2005883a 	mov	r2,r4
   41de8:	f800283a 	ret
   41dec:	00c00044 	movi	r3,1
   41df0:	003ff606 	br	41dcc <__umodsi3+0x34>

00041df4 <__mulsi3>:
   41df4:	0005883a 	mov	r2,zero
   41df8:	20000726 	beq	r4,zero,41e18 <__mulsi3+0x24>
   41dfc:	20c0004c 	andi	r3,r4,1
   41e00:	2008d07a 	srli	r4,r4,1
   41e04:	18000126 	beq	r3,zero,41e0c <__mulsi3+0x18>
   41e08:	1145883a 	add	r2,r2,r5
   41e0c:	294b883a 	add	r5,r5,r5
   41e10:	203ffa1e 	bne	r4,zero,41dfc <__mulsi3+0x8>
   41e14:	f800283a 	ret
   41e18:	f800283a 	ret

00041e1c <_printf_r>:
   41e1c:	defffd04 	addi	sp,sp,-12
   41e20:	2805883a 	mov	r2,r5
   41e24:	dfc00015 	stw	ra,0(sp)
   41e28:	d9800115 	stw	r6,4(sp)
   41e2c:	d9c00215 	stw	r7,8(sp)
   41e30:	21400217 	ldw	r5,8(r4)
   41e34:	d9c00104 	addi	r7,sp,4
   41e38:	100d883a 	mov	r6,r2
   41e3c:	0041e840 	call	41e84 <___vfprintf_internal_r>
   41e40:	dfc00017 	ldw	ra,0(sp)
   41e44:	dec00304 	addi	sp,sp,12
   41e48:	f800283a 	ret

00041e4c <printf>:
   41e4c:	defffc04 	addi	sp,sp,-16
   41e50:	dfc00015 	stw	ra,0(sp)
   41e54:	d9400115 	stw	r5,4(sp)
   41e58:	d9800215 	stw	r6,8(sp)
   41e5c:	d9c00315 	stw	r7,12(sp)
   41e60:	00800174 	movhi	r2,5
   41e64:	10890f17 	ldw	r2,9276(r2)
   41e68:	200b883a 	mov	r5,r4
   41e6c:	d9800104 	addi	r6,sp,4
   41e70:	11000217 	ldw	r4,8(r2)
   41e74:	00442080 	call	44208 <__vfprintf_internal>
   41e78:	dfc00017 	ldw	ra,0(sp)
   41e7c:	dec00404 	addi	sp,sp,16
   41e80:	f800283a 	ret

00041e84 <___vfprintf_internal_r>:
   41e84:	deffbd04 	addi	sp,sp,-268
   41e88:	dfc04215 	stw	ra,264(sp)
   41e8c:	dcc03c15 	stw	r19,240(sp)
   41e90:	dc003915 	stw	r16,228(sp)
   41e94:	d9000515 	stw	r4,20(sp)
   41e98:	2021883a 	mov	r16,r4
   41e9c:	d9400415 	stw	r5,16(sp)
   41ea0:	3027883a 	mov	r19,r6
   41ea4:	d9c00715 	stw	r7,28(sp)
   41ea8:	df004115 	stw	fp,260(sp)
   41eac:	ddc04015 	stw	r23,256(sp)
   41eb0:	dd803f15 	stw	r22,252(sp)
   41eb4:	dd403e15 	stw	r21,248(sp)
   41eb8:	dd003d15 	stw	r20,244(sp)
   41ebc:	dc803b15 	stw	r18,236(sp)
   41ec0:	dc403a15 	stw	r17,232(sp)
   41ec4:	0046dc40 	call	46dc4 <_localeconv_r>
   41ec8:	10800017 	ldw	r2,0(r2)
   41ecc:	1009883a 	mov	r4,r2
   41ed0:	d8800d15 	stw	r2,52(sp)
   41ed4:	0046c200 	call	46c20 <strlen>
   41ed8:	d8800c15 	stw	r2,48(sp)
   41edc:	80000226 	beq	r16,zero,41ee8 <___vfprintf_internal_r+0x64>
   41ee0:	80800d17 	ldw	r2,52(r16)
   41ee4:	1006a226 	beq	r2,zero,43970 <___vfprintf_internal_r+0x1aec>
   41ee8:	d9400417 	ldw	r5,16(sp)
   41eec:	2880030b 	ldhu	r2,12(r5)
   41ef0:	10c8000c 	andi	r3,r2,8192
   41ef4:	1800071e 	bne	r3,zero,41f14 <___vfprintf_internal_r+0x90>
   41ef8:	28c01917 	ldw	r3,100(r5)
   41efc:	11080014 	ori	r4,r2,8192
   41f00:	00b7ffc4 	movi	r2,-8193
   41f04:	1886703a 	and	r3,r3,r2
   41f08:	2900030d 	sth	r4,12(r5)
   41f0c:	2005883a 	mov	r2,r4
   41f10:	28c01915 	stw	r3,100(r5)
   41f14:	10c0020c 	andi	r3,r2,8
   41f18:	1800f626 	beq	r3,zero,422f4 <___vfprintf_internal_r+0x470>
   41f1c:	d8c00417 	ldw	r3,16(sp)
   41f20:	18c00417 	ldw	r3,16(r3)
   41f24:	1800f326 	beq	r3,zero,422f4 <___vfprintf_internal_r+0x470>
   41f28:	1080068c 	andi	r2,r2,26
   41f2c:	10800298 	cmpnei	r2,r2,10
   41f30:	1000f926 	beq	r2,zero,42318 <___vfprintf_internal_r+0x494>
   41f34:	dc802904 	addi	r18,sp,164
   41f38:	05000174 	movhi	r20,5
   41f3c:	dc801c15 	stw	r18,112(sp)
   41f40:	d8001e15 	stw	zero,120(sp)
   41f44:	d8001d15 	stw	zero,116(sp)
   41f48:	d8000915 	stw	zero,36(sp)
   41f4c:	d8000a15 	stw	zero,40(sp)
   41f50:	d8000b15 	stw	zero,44(sp)
   41f54:	9021883a 	mov	r16,r18
   41f58:	d8000e15 	stw	zero,56(sp)
   41f5c:	d8001115 	stw	zero,68(sp)
   41f60:	d8000615 	stw	zero,24(sp)
   41f64:	a501aa04 	addi	r20,r20,1704
   41f68:	98800007 	ldb	r2,0(r19)
   41f6c:	1000ce26 	beq	r2,zero,422a8 <___vfprintf_internal_r+0x424>
   41f70:	9823883a 	mov	r17,r19
   41f74:	00000306 	br	41f84 <___vfprintf_internal_r+0x100>
   41f78:	88800047 	ldb	r2,1(r17)
   41f7c:	8c400044 	addi	r17,r17,1
   41f80:	10015226 	beq	r2,zero,424cc <___vfprintf_internal_r+0x648>
   41f84:	10800958 	cmpnei	r2,r2,37
   41f88:	103ffb1e 	bne	r2,zero,41f78 <___vfprintf_internal_r+0xf4>
   41f8c:	8cebc83a 	sub	r21,r17,r19
   41f90:	8cc1501e 	bne	r17,r19,424d4 <___vfprintf_internal_r+0x650>
   41f94:	88800003 	ldbu	r2,0(r17)
   41f98:	10803fcc 	andi	r2,r2,255
   41f9c:	1080201c 	xori	r2,r2,128
   41fa0:	10bfe004 	addi	r2,r2,-128
   41fa4:	1000c026 	beq	r2,zero,422a8 <___vfprintf_internal_r+0x424>
   41fa8:	8a400047 	ldb	r9,1(r17)
   41fac:	8cc00044 	addi	r19,r17,1
   41fb0:	d8001545 	stb	zero,85(sp)
   41fb4:	057fffc4 	movi	r21,-1
   41fb8:	0011883a 	mov	r8,zero
   41fbc:	0019883a 	mov	r12,zero
   41fc0:	9cc00044 	addi	r19,r19,1
   41fc4:	48bff804 	addi	r2,r9,-32
   41fc8:	10c01668 	cmpgeui	r3,r2,89
   41fcc:	18006c1e 	bne	r3,zero,42180 <___vfprintf_internal_r+0x2fc>
   41fd0:	100490ba 	slli	r2,r2,2
   41fd4:	00c00134 	movhi	r3,4
   41fd8:	10c7883a 	add	r3,r2,r3
   41fdc:	1887f917 	ldw	r2,8164(r3)
   41fe0:	1000683a 	jmp	r2
   41fe4:	00042898 	cmpnei	zero,zero,4258
   41fe8:	00042180 	call	4218 <__reset-0x3bde8>
   41fec:	00042180 	call	4218 <__reset-0x3bde8>
   41ff0:	0004288c 	andi	zero,zero,4258
   41ff4:	00042180 	call	4218 <__reset-0x3bde8>
   41ff8:	00042180 	call	4218 <__reset-0x3bde8>
   41ffc:	00042180 	call	4218 <__reset-0x3bde8>
   42000:	00042180 	call	4218 <__reset-0x3bde8>
   42004:	00042180 	call	4218 <__reset-0x3bde8>
   42008:	00042180 	call	4218 <__reset-0x3bde8>
   4200c:	00042800 	call	4280 <__reset-0x3bd80>
   42010:	0004287c 	xorhi	zero,zero,4257
   42014:	00042180 	call	4218 <__reset-0x3bde8>
   42018:	00042818 	cmpnei	zero,zero,4256
   4201c:	00042824 	muli	zero,zero,4256
   42020:	00042180 	call	4218 <__reset-0x3bde8>
   42024:	00042870 	cmpltui	zero,zero,4257
   42028:	00042148 	cmpgei	zero,zero,4229
   4202c:	00042148 	cmpgei	zero,zero,4229
   42030:	00042148 	cmpgei	zero,zero,4229
   42034:	00042148 	cmpgei	zero,zero,4229
   42038:	00042148 	cmpgei	zero,zero,4229
   4203c:	00042148 	cmpgei	zero,zero,4229
   42040:	00042148 	cmpgei	zero,zero,4229
   42044:	00042148 	cmpgei	zero,zero,4229
   42048:	00042148 	cmpgei	zero,zero,4229
   4204c:	00042180 	call	4218 <__reset-0x3bde8>
   42050:	00042180 	call	4218 <__reset-0x3bde8>
   42054:	00042180 	call	4218 <__reset-0x3bde8>
   42058:	00042180 	call	4218 <__reset-0x3bde8>
   4205c:	00042180 	call	4218 <__reset-0x3bde8>
   42060:	00042180 	call	4218 <__reset-0x3bde8>
   42064:	00042180 	call	4218 <__reset-0x3bde8>
   42068:	00042180 	call	4218 <__reset-0x3bde8>
   4206c:	00042180 	call	4218 <__reset-0x3bde8>
   42070:	00042180 	call	4218 <__reset-0x3bde8>
   42074:	00042364 	muli	zero,zero,4237
   42078:	00042620 	cmpeqi	zero,zero,4248
   4207c:	00042180 	call	4218 <__reset-0x3bde8>
   42080:	00042620 	cmpeqi	zero,zero,4248
   42084:	00042180 	call	4218 <__reset-0x3bde8>
   42088:	00042180 	call	4218 <__reset-0x3bde8>
   4208c:	00042180 	call	4218 <__reset-0x3bde8>
   42090:	00042180 	call	4218 <__reset-0x3bde8>
   42094:	000428e4 	muli	zero,zero,4259
   42098:	00042180 	call	4218 <__reset-0x3bde8>
   4209c:	00042180 	call	4218 <__reset-0x3bde8>
   420a0:	000423cc 	andi	zero,zero,4239
   420a4:	00042180 	call	4218 <__reset-0x3bde8>
   420a8:	00042180 	call	4218 <__reset-0x3bde8>
   420ac:	00042180 	call	4218 <__reset-0x3bde8>
   420b0:	00042180 	call	4218 <__reset-0x3bde8>
   420b4:	00042180 	call	4218 <__reset-0x3bde8>
   420b8:	000423f4 	movhi	zero,4239
   420bc:	00042180 	call	4218 <__reset-0x3bde8>
   420c0:	00042180 	call	4218 <__reset-0x3bde8>
   420c4:	00043400 	call	4340 <__reset-0x3bcc0>
   420c8:	00042180 	call	4218 <__reset-0x3bde8>
   420cc:	00042180 	call	4218 <__reset-0x3bde8>
   420d0:	00042180 	call	4218 <__reset-0x3bde8>
   420d4:	00042180 	call	4218 <__reset-0x3bde8>
   420d8:	00042180 	call	4218 <__reset-0x3bde8>
   420dc:	00042180 	call	4218 <__reset-0x3bde8>
   420e0:	00042180 	call	4218 <__reset-0x3bde8>
   420e4:	00042180 	call	4218 <__reset-0x3bde8>
   420e8:	00042180 	call	4218 <__reset-0x3bde8>
   420ec:	00042180 	call	4218 <__reset-0x3bde8>
   420f0:	000428fc 	xorhi	zero,zero,4259
   420f4:	00042368 	cmpgeui	zero,zero,4237
   420f8:	00042620 	cmpeqi	zero,zero,4248
   420fc:	00042620 	cmpeqi	zero,zero,4248
   42100:	00042620 	cmpeqi	zero,zero,4248
   42104:	000428f0 	cmpltui	zero,zero,4259
   42108:	00042368 	cmpgeui	zero,zero,4237
   4210c:	00042180 	call	4218 <__reset-0x3bde8>
   42110:	00042180 	call	4218 <__reset-0x3bde8>
   42114:	000428bc 	xorhi	zero,zero,4258
   42118:	00042180 	call	4218 <__reset-0x3bde8>
   4211c:	000429d4 	movui	zero,4263
   42120:	000423d0 	cmplti	zero,zero,4239
   42124:	0004299c 	xori	zero,zero,4262
   42128:	00042990 	cmplti	zero,zero,4262
   4212c:	00042180 	call	4218 <__reset-0x3bde8>
   42130:	00042924 	muli	zero,zero,4260
   42134:	00042180 	call	4218 <__reset-0x3bde8>
   42138:	000423f8 	rdprs	zero,zero,4239
   4213c:	00042180 	call	4218 <__reset-0x3bde8>
   42140:	00042180 	call	4218 <__reset-0x3bde8>
   42144:	00043450 	cmplti	zero,zero,4305
   42148:	0011883a 	mov	r8,zero
   4214c:	48fff404 	addi	r3,r9,-48
   42150:	400490ba 	slli	r2,r8,2
   42154:	9a400007 	ldb	r9,0(r19)
   42158:	9cc00044 	addi	r19,r19,1
   4215c:	1211883a 	add	r8,r2,r8
   42160:	4211883a 	add	r8,r8,r8
   42164:	1a11883a 	add	r8,r3,r8
   42168:	48fff404 	addi	r3,r9,-48
   4216c:	188002b0 	cmpltui	r2,r3,10
   42170:	103ff71e 	bne	r2,zero,42150 <___vfprintf_internal_r+0x2cc>
   42174:	48bff804 	addi	r2,r9,-32
   42178:	10c01668 	cmpgeui	r3,r2,89
   4217c:	183f9426 	beq	r3,zero,41fd0 <___vfprintf_internal_r+0x14c>
   42180:	48004926 	beq	r9,zero,422a8 <___vfprintf_internal_r+0x424>
   42184:	da401f05 	stb	r9,124(sp)
   42188:	d8001545 	stb	zero,85(sp)
   4218c:	02c00044 	movi	r11,1
   42190:	07000044 	movi	fp,1
   42194:	dd801f04 	addi	r22,sp,124
   42198:	602f883a 	mov	r23,r12
   4219c:	002b883a 	mov	r21,zero
   421a0:	d8000815 	stw	zero,32(sp)
   421a4:	bb80008c 	andi	r14,r23,2
   421a8:	70000126 	beq	r14,zero,421b0 <___vfprintf_internal_r+0x32c>
   421ac:	5ac00084 	addi	r11,r11,2
   421b0:	bb40210c 	andi	r13,r23,132
   421b4:	dc401e17 	ldw	r17,120(sp)
   421b8:	6800021e 	bne	r13,zero,421c4 <___vfprintf_internal_r+0x340>
   421bc:	42c7c83a 	sub	r3,r8,r11
   421c0:	00c32a16 	blt	zero,r3,42e6c <___vfprintf_internal_r+0xfe8>
   421c4:	d8801547 	ldb	r2,85(sp)
   421c8:	10000c26 	beq	r2,zero,421fc <___vfprintf_internal_r+0x378>
   421cc:	d8801d17 	ldw	r2,116(sp)
   421d0:	d8c01544 	addi	r3,sp,85
   421d4:	8c400044 	addi	r17,r17,1
   421d8:	10800044 	addi	r2,r2,1
   421dc:	80c00015 	stw	r3,0(r16)
   421e0:	00c00044 	movi	r3,1
   421e4:	d8801d15 	stw	r2,116(sp)
   421e8:	80c00115 	stw	r3,4(r16)
   421ec:	dc401e15 	stw	r17,120(sp)
   421f0:	10800208 	cmpgei	r2,r2,8
   421f4:	1003741e 	bne	r2,zero,42fc8 <___vfprintf_internal_r+0x1144>
   421f8:	84000204 	addi	r16,r16,8
   421fc:	70000c26 	beq	r14,zero,42230 <___vfprintf_internal_r+0x3ac>
   42200:	d8801d17 	ldw	r2,116(sp)
   42204:	d8c01584 	addi	r3,sp,86
   42208:	8c400084 	addi	r17,r17,2
   4220c:	10800044 	addi	r2,r2,1
   42210:	80c00015 	stw	r3,0(r16)
   42214:	00c00084 	movi	r3,2
   42218:	d8801d15 	stw	r2,116(sp)
   4221c:	80c00115 	stw	r3,4(r16)
   42220:	dc401e15 	stw	r17,120(sp)
   42224:	10800208 	cmpgei	r2,r2,8
   42228:	1003791e 	bne	r2,zero,43010 <___vfprintf_internal_r+0x118c>
   4222c:	84000204 	addi	r16,r16,8
   42230:	6b402018 	cmpnei	r13,r13,128
   42234:	68024226 	beq	r13,zero,42b40 <___vfprintf_internal_r+0xcbc>
   42238:	af2bc83a 	sub	r21,r21,fp
   4223c:	05427a16 	blt	zero,r21,42c28 <___vfprintf_internal_r+0xda4>
   42240:	b880400c 	andi	r2,r23,256
   42244:	1001ef1e 	bne	r2,zero,42a04 <___vfprintf_internal_r+0xb80>
   42248:	d8801d17 	ldw	r2,116(sp)
   4224c:	8f23883a 	add	r17,r17,fp
   42250:	85800015 	stw	r22,0(r16)
   42254:	10800044 	addi	r2,r2,1
   42258:	d8801d15 	stw	r2,116(sp)
   4225c:	87000115 	stw	fp,4(r16)
   42260:	dc401e15 	stw	r17,120(sp)
   42264:	10800208 	cmpgei	r2,r2,8
   42268:	10034b1e 	bne	r2,zero,42f98 <___vfprintf_internal_r+0x1114>
   4226c:	84000204 	addi	r16,r16,8
   42270:	ba80010c 	andi	r10,r23,4
   42274:	50000226 	beq	r10,zero,42280 <___vfprintf_internal_r+0x3fc>
   42278:	42ebc83a 	sub	r21,r8,r11
   4227c:	0540ac16 	blt	zero,r21,42530 <___vfprintf_internal_r+0x6ac>
   42280:	42c0010e 	bge	r8,r11,42288 <___vfprintf_internal_r+0x404>
   42284:	5811883a 	mov	r8,r11
   42288:	d8800617 	ldw	r2,24(sp)
   4228c:	1205883a 	add	r2,r2,r8
   42290:	d8800615 	stw	r2,24(sp)
   42294:	8802b41e 	bne	r17,zero,42d68 <___vfprintf_internal_r+0xee4>
   42298:	98800007 	ldb	r2,0(r19)
   4229c:	d8001d15 	stw	zero,116(sp)
   422a0:	9021883a 	mov	r16,r18
   422a4:	103f321e 	bne	r2,zero,41f70 <___vfprintf_internal_r+0xec>
   422a8:	d8801e17 	ldw	r2,120(sp)
   422ac:	10062a1e 	bne	r2,zero,43b58 <___vfprintf_internal_r+0x1cd4>
   422b0:	d8800417 	ldw	r2,16(sp)
   422b4:	1080030b 	ldhu	r2,12(r2)
   422b8:	1080100c 	andi	r2,r2,64
   422bc:	10074f1e 	bne	r2,zero,43ffc <___vfprintf_internal_r+0x2178>
   422c0:	d8800617 	ldw	r2,24(sp)
   422c4:	dfc04217 	ldw	ra,264(sp)
   422c8:	df004117 	ldw	fp,260(sp)
   422cc:	ddc04017 	ldw	r23,256(sp)
   422d0:	dd803f17 	ldw	r22,252(sp)
   422d4:	dd403e17 	ldw	r21,248(sp)
   422d8:	dd003d17 	ldw	r20,244(sp)
   422dc:	dcc03c17 	ldw	r19,240(sp)
   422e0:	dc803b17 	ldw	r18,236(sp)
   422e4:	dc403a17 	ldw	r17,232(sp)
   422e8:	dc003917 	ldw	r16,228(sp)
   422ec:	dec04304 	addi	sp,sp,268
   422f0:	f800283a 	ret
   422f4:	d9400417 	ldw	r5,16(sp)
   422f8:	d9000517 	ldw	r4,20(sp)
   422fc:	00464780 	call	46478 <__swsetup_r>
   42300:	10073e1e 	bne	r2,zero,43ffc <___vfprintf_internal_r+0x2178>
   42304:	d8800417 	ldw	r2,16(sp)
   42308:	1080030b 	ldhu	r2,12(r2)
   4230c:	1080068c 	andi	r2,r2,26
   42310:	10800298 	cmpnei	r2,r2,10
   42314:	103f071e 	bne	r2,zero,41f34 <___vfprintf_internal_r+0xb0>
   42318:	d8800417 	ldw	r2,16(sp)
   4231c:	1080038f 	ldh	r2,14(r2)
   42320:	103f0416 	blt	r2,zero,41f34 <___vfprintf_internal_r+0xb0>
   42324:	d9c00717 	ldw	r7,28(sp)
   42328:	d9400417 	ldw	r5,16(sp)
   4232c:	d9000517 	ldw	r4,20(sp)
   42330:	980d883a 	mov	r6,r19
   42334:	dfc04217 	ldw	ra,264(sp)
   42338:	df004117 	ldw	fp,260(sp)
   4233c:	ddc04017 	ldw	r23,256(sp)
   42340:	dd803f17 	ldw	r22,252(sp)
   42344:	dd403e17 	ldw	r21,248(sp)
   42348:	dd003d17 	ldw	r20,244(sp)
   4234c:	dcc03c17 	ldw	r19,240(sp)
   42350:	dc803b17 	ldw	r18,236(sp)
   42354:	dc403a17 	ldw	r17,232(sp)
   42358:	dc003917 	ldw	r16,228(sp)
   4235c:	dec04304 	addi	sp,sp,268
   42360:	00442241 	jmpi	44224 <__sbprintf>
   42364:	63000414 	ori	r12,r12,16
   42368:	6080080c 	andi	r2,r12,32
   4236c:	1000e926 	beq	r2,zero,42714 <___vfprintf_internal_r+0x890>
   42370:	d8c00717 	ldw	r3,28(sp)
   42374:	18800117 	ldw	r2,4(r3)
   42378:	1c400017 	ldw	r17,0(r3)
   4237c:	18c00204 	addi	r3,r3,8
   42380:	d8c00715 	stw	r3,28(sp)
   42384:	1039883a 	mov	fp,r2
   42388:	1000f016 	blt	r2,zero,4274c <___vfprintf_internal_r+0x8c8>
   4238c:	a8bfffd8 	cmpnei	r2,r21,-1
   42390:	d9001543 	ldbu	r4,85(sp)
   42394:	10011126 	beq	r2,zero,427dc <___vfprintf_internal_r+0x958>
   42398:	02bfdfc4 	movi	r10,-129
   4239c:	8f04b03a 	or	r2,r17,fp
   423a0:	62ae703a 	and	r23,r12,r10
   423a4:	10010c1e 	bne	r2,zero,427d8 <___vfprintf_internal_r+0x954>
   423a8:	00800044 	movi	r2,1
   423ac:	a802571e 	bne	r21,zero,42d0c <___vfprintf_internal_r+0xe88>
   423b0:	1003871e 	bne	r2,zero,431d0 <___vfprintf_internal_r+0x134c>
   423b4:	6700004c 	andi	fp,r12,1
   423b8:	e003e726 	beq	fp,zero,43358 <___vfprintf_internal_r+0x14d4>
   423bc:	00800c04 	movi	r2,48
   423c0:	d88028c5 	stb	r2,163(sp)
   423c4:	dd8028c4 	addi	r22,sp,163
   423c8:	00003606 	br	424a4 <___vfprintf_internal_r+0x620>
   423cc:	63000414 	ori	r12,r12,16
   423d0:	6080080c 	andi	r2,r12,32
   423d4:	1000f026 	beq	r2,zero,42798 <___vfprintf_internal_r+0x914>
   423d8:	d8c00717 	ldw	r3,28(sp)
   423dc:	0005883a 	mov	r2,zero
   423e0:	1c400017 	ldw	r17,0(r3)
   423e4:	1f000117 	ldw	fp,4(r3)
   423e8:	18c00204 	addi	r3,r3,8
   423ec:	d8c00715 	stw	r3,28(sp)
   423f0:	00000906 	br	42418 <___vfprintf_internal_r+0x594>
   423f4:	63000414 	ori	r12,r12,16
   423f8:	6080080c 	andi	r2,r12,32
   423fc:	1000da26 	beq	r2,zero,42768 <___vfprintf_internal_r+0x8e4>
   42400:	d8c00717 	ldw	r3,28(sp)
   42404:	00800044 	movi	r2,1
   42408:	1c400017 	ldw	r17,0(r3)
   4240c:	1f000117 	ldw	fp,4(r3)
   42410:	18c00204 	addi	r3,r3,8
   42414:	d8c00715 	stw	r3,28(sp)
   42418:	0009883a 	mov	r4,zero
   4241c:	d9001545 	stb	r4,85(sp)
   42420:	a8ffffe0 	cmpeqi	r3,r21,-1
   42424:	1800051e 	bne	r3,zero,4243c <___vfprintf_internal_r+0x5b8>
   42428:	02bfdfc4 	movi	r10,-129
   4242c:	8f06b03a 	or	r3,r17,fp
   42430:	62ae703a 	and	r23,r12,r10
   42434:	183fdd26 	beq	r3,zero,423ac <___vfprintf_internal_r+0x528>
   42438:	b819883a 	mov	r12,r23
   4243c:	10c00060 	cmpeqi	r3,r2,1
   42440:	1800e61e 	bne	r3,zero,427dc <___vfprintf_internal_r+0x958>
   42444:	108000a0 	cmpeqi	r2,r2,2
   42448:	1002371e 	bne	r2,zero,42d28 <___vfprintf_internal_r+0xea4>
   4244c:	902d883a 	mov	r22,r18
   42450:	8806d0fa 	srli	r3,r17,3
   42454:	e00c977a 	slli	r6,fp,29
   42458:	e038d0fa 	srli	fp,fp,3
   4245c:	8c4001cc 	andi	r17,r17,7
   42460:	88800c04 	addi	r2,r17,48
   42464:	30e2b03a 	or	r17,r6,r3
   42468:	b0bfffc5 	stb	r2,-1(r22)
   4246c:	8f06b03a 	or	r3,r17,fp
   42470:	b00b883a 	mov	r5,r22
   42474:	b5bfffc4 	addi	r22,r22,-1
   42478:	183ff51e 	bne	r3,zero,42450 <___vfprintf_internal_r+0x5cc>
   4247c:	60c0004c 	andi	r3,r12,1
   42480:	18023626 	beq	r3,zero,42d5c <___vfprintf_internal_r+0xed8>
   42484:	10800c18 	cmpnei	r2,r2,48
   42488:	10023426 	beq	r2,zero,42d5c <___vfprintf_internal_r+0xed8>
   4248c:	297fff84 	addi	r5,r5,-2
   42490:	00800c04 	movi	r2,48
   42494:	b0bfffc5 	stb	r2,-1(r22)
   42498:	9179c83a 	sub	fp,r18,r5
   4249c:	602f883a 	mov	r23,r12
   424a0:	282d883a 	mov	r22,r5
   424a4:	e017883a 	mov	r11,fp
   424a8:	e540010e 	bge	fp,r21,424b0 <___vfprintf_internal_r+0x62c>
   424ac:	a817883a 	mov	r11,r21
   424b0:	d8000815 	stw	zero,32(sp)
   424b4:	21003fcc 	andi	r4,r4,255
   424b8:	2100201c 	xori	r4,r4,128
   424bc:	213fe004 	addi	r4,r4,-128
   424c0:	203f3826 	beq	r4,zero,421a4 <___vfprintf_internal_r+0x320>
   424c4:	5ac00044 	addi	r11,r11,1
   424c8:	003f3606 	br	421a4 <___vfprintf_internal_r+0x320>
   424cc:	8cebc83a 	sub	r21,r17,r19
   424d0:	8cff7526 	beq	r17,r19,422a8 <___vfprintf_internal_r+0x424>
   424d4:	d8c01e17 	ldw	r3,120(sp)
   424d8:	d8801d17 	ldw	r2,116(sp)
   424dc:	84c00015 	stw	r19,0(r16)
   424e0:	1d47883a 	add	r3,r3,r21
   424e4:	10800044 	addi	r2,r2,1
   424e8:	d8801d15 	stw	r2,116(sp)
   424ec:	85400115 	stw	r21,4(r16)
   424f0:	d8c01e15 	stw	r3,120(sp)
   424f4:	10800208 	cmpgei	r2,r2,8
   424f8:	1000061e 	bne	r2,zero,42514 <___vfprintf_internal_r+0x690>
   424fc:	84000204 	addi	r16,r16,8
   42500:	d8c00617 	ldw	r3,24(sp)
   42504:	88800003 	ldbu	r2,0(r17)
   42508:	1d47883a 	add	r3,r3,r21
   4250c:	d8c00615 	stw	r3,24(sp)
   42510:	003ea106 	br	41f98 <___vfprintf_internal_r+0x114>
   42514:	d9400417 	ldw	r5,16(sp)
   42518:	d9000517 	ldw	r4,20(sp)
   4251c:	d9801c04 	addi	r6,sp,112
   42520:	00443dc0 	call	443dc <__sprint_r>
   42524:	103f621e 	bne	r2,zero,422b0 <___vfprintf_internal_r+0x42c>
   42528:	9021883a 	mov	r16,r18
   4252c:	003ff406 	br	42500 <___vfprintf_internal_r+0x67c>
   42530:	03000174 	movhi	r12,5
   42534:	a8c00450 	cmplti	r3,r21,17
   42538:	d8801d17 	ldw	r2,116(sp)
   4253c:	6301ae04 	addi	r12,r12,1720
   42540:	1800241e 	bne	r3,zero,425d4 <___vfprintf_internal_r+0x750>
   42544:	8007883a 	mov	r3,r16
   42548:	8809883a 	mov	r4,r17
   4254c:	ddc00517 	ldw	r23,20(sp)
   42550:	05800404 	movi	r22,16
   42554:	4021883a 	mov	r16,r8
   42558:	5823883a 	mov	r17,r11
   4255c:	6039883a 	mov	fp,r12
   42560:	00000406 	br	42574 <___vfprintf_internal_r+0x6f0>
   42564:	ad7ffc04 	addi	r21,r21,-16
   42568:	a9400448 	cmpgei	r5,r21,17
   4256c:	18c00204 	addi	r3,r3,8
   42570:	28001326 	beq	r5,zero,425c0 <___vfprintf_internal_r+0x73c>
   42574:	10800044 	addi	r2,r2,1
   42578:	21000404 	addi	r4,r4,16
   4257c:	1f000015 	stw	fp,0(r3)
   42580:	1d800115 	stw	r22,4(r3)
   42584:	d9001e15 	stw	r4,120(sp)
   42588:	d8801d15 	stw	r2,116(sp)
   4258c:	11400208 	cmpgei	r5,r2,8
   42590:	283ff426 	beq	r5,zero,42564 <___vfprintf_internal_r+0x6e0>
   42594:	d9400417 	ldw	r5,16(sp)
   42598:	d9801c04 	addi	r6,sp,112
   4259c:	b809883a 	mov	r4,r23
   425a0:	00443dc0 	call	443dc <__sprint_r>
   425a4:	103f421e 	bne	r2,zero,422b0 <___vfprintf_internal_r+0x42c>
   425a8:	ad7ffc04 	addi	r21,r21,-16
   425ac:	a9400448 	cmpgei	r5,r21,17
   425b0:	d9001e17 	ldw	r4,120(sp)
   425b4:	d8801d17 	ldw	r2,116(sp)
   425b8:	9007883a 	mov	r3,r18
   425bc:	283fed1e 	bne	r5,zero,42574 <___vfprintf_internal_r+0x6f0>
   425c0:	8011883a 	mov	r8,r16
   425c4:	8817883a 	mov	r11,r17
   425c8:	1821883a 	mov	r16,r3
   425cc:	2023883a 	mov	r17,r4
   425d0:	e019883a 	mov	r12,fp
   425d4:	10800044 	addi	r2,r2,1
   425d8:	8d63883a 	add	r17,r17,r21
   425dc:	d8801d15 	stw	r2,116(sp)
   425e0:	83000015 	stw	r12,0(r16)
   425e4:	85400115 	stw	r21,4(r16)
   425e8:	dc401e15 	stw	r17,120(sp)
   425ec:	10800210 	cmplti	r2,r2,8
   425f0:	103f231e 	bne	r2,zero,42280 <___vfprintf_internal_r+0x3fc>
   425f4:	d9400417 	ldw	r5,16(sp)
   425f8:	d9000517 	ldw	r4,20(sp)
   425fc:	d9801c04 	addi	r6,sp,112
   42600:	dac00f15 	stw	r11,60(sp)
   42604:	da000815 	stw	r8,32(sp)
   42608:	00443dc0 	call	443dc <__sprint_r>
   4260c:	103f281e 	bne	r2,zero,422b0 <___vfprintf_internal_r+0x42c>
   42610:	dc401e17 	ldw	r17,120(sp)
   42614:	dac00f17 	ldw	r11,60(sp)
   42618:	da000817 	ldw	r8,32(sp)
   4261c:	003f1806 	br	42280 <___vfprintf_internal_r+0x3fc>
   42620:	d8c00717 	ldw	r3,28(sp)
   42624:	6080020c 	andi	r2,r12,8
   42628:	19000204 	addi	r4,r3,8
   4262c:	d9001015 	stw	r4,64(sp)
   42630:	10034b1e 	bne	r2,zero,43360 <___vfprintf_internal_r+0x14dc>
   42634:	d8800717 	ldw	r2,28(sp)
   42638:	10c00017 	ldw	r3,0(r2)
   4263c:	10800117 	ldw	r2,4(r2)
   42640:	d8c00a15 	stw	r3,40(sp)
   42644:	d8800b15 	stw	r2,44(sp)
   42648:	ddc00b17 	ldw	r23,44(sp)
   4264c:	dd800a17 	ldw	r22,40(sp)
   42650:	00a00034 	movhi	r2,32768
   42654:	10bfffc4 	addi	r2,r2,-1
   42658:	b8a2703a 	and	r17,r23,r2
   4265c:	01dffc34 	movhi	r7,32752
   42660:	01bfffc4 	movi	r6,-1
   42664:	39ffffc4 	addi	r7,r7,-1
   42668:	b009883a 	mov	r4,r22
   4266c:	880b883a 	mov	r5,r17
   42670:	da000f15 	stw	r8,60(sp)
   42674:	db000815 	stw	r12,32(sp)
   42678:	da400715 	stw	r9,28(sp)
   4267c:	004ddc40 	call	4ddc4 <__unorddf2>
   42680:	da400717 	ldw	r9,28(sp)
   42684:	db000817 	ldw	r12,32(sp)
   42688:	da000f17 	ldw	r8,60(sp)
   4268c:	10043c1e 	bne	r2,zero,43780 <___vfprintf_internal_r+0x18fc>
   42690:	01dffc34 	movhi	r7,32752
   42694:	01bfffc4 	movi	r6,-1
   42698:	39ffffc4 	addi	r7,r7,-1
   4269c:	b009883a 	mov	r4,r22
   426a0:	880b883a 	mov	r5,r17
   426a4:	004cb280 	call	4cb28 <__ledf2>
   426a8:	da400717 	ldw	r9,28(sp)
   426ac:	db000817 	ldw	r12,32(sp)
   426b0:	da000f17 	ldw	r8,60(sp)
   426b4:	0084320e 	bge	zero,r2,43780 <___vfprintf_internal_r+0x18fc>
   426b8:	000d883a 	mov	r6,zero
   426bc:	000f883a 	mov	r7,zero
   426c0:	b009883a 	mov	r4,r22
   426c4:	b80b883a 	mov	r5,r23
   426c8:	004cb280 	call	4cb28 <__ledf2>
   426cc:	da400717 	ldw	r9,28(sp)
   426d0:	db000817 	ldw	r12,32(sp)
   426d4:	da000f17 	ldw	r8,60(sp)
   426d8:	10050816 	blt	r2,zero,43afc <___vfprintf_internal_r+0x1c78>
   426dc:	d9001543 	ldbu	r4,85(sp)
   426e0:	48801210 	cmplti	r2,r9,72
   426e4:	1004ed1e 	bne	r2,zero,43a9c <___vfprintf_internal_r+0x1c18>
   426e8:	05800174 	movhi	r22,5
   426ec:	b5819a04 	addi	r22,r22,1640
   426f0:	d8801017 	ldw	r2,64(sp)
   426f4:	02bfdfc4 	movi	r10,-129
   426f8:	62ae703a 	and	r23,r12,r10
   426fc:	d8800715 	stw	r2,28(sp)
   42700:	02c000c4 	movi	r11,3
   42704:	070000c4 	movi	fp,3
   42708:	002b883a 	mov	r21,zero
   4270c:	d8000815 	stw	zero,32(sp)
   42710:	003f6806 	br	424b4 <___vfprintf_internal_r+0x630>
   42714:	d8c00717 	ldw	r3,28(sp)
   42718:	6080040c 	andi	r2,r12,16
   4271c:	1c400017 	ldw	r17,0(r3)
   42720:	1dc00104 	addi	r23,r3,4
   42724:	1000281e 	bne	r2,zero,427c8 <___vfprintf_internal_r+0x944>
   42728:	6080100c 	andi	r2,r12,64
   4272c:	10002626 	beq	r2,zero,427c8 <___vfprintf_internal_r+0x944>
   42730:	8c7fffcc 	andi	r17,r17,65535
   42734:	8c60001c 	xori	r17,r17,32768
   42738:	8c600004 	addi	r17,r17,-32768
   4273c:	8839d7fa 	srai	fp,r17,31
   42740:	ddc00715 	stw	r23,28(sp)
   42744:	e005883a 	mov	r2,fp
   42748:	103f100e 	bge	r2,zero,4238c <___vfprintf_internal_r+0x508>
   4274c:	8804c03a 	cmpne	r2,r17,zero
   42750:	0739c83a 	sub	fp,zero,fp
   42754:	e0b9c83a 	sub	fp,fp,r2
   42758:	0463c83a 	sub	r17,zero,r17
   4275c:	01000b44 	movi	r4,45
   42760:	00800044 	movi	r2,1
   42764:	003f2d06 	br	4241c <___vfprintf_internal_r+0x598>
   42768:	d8c00717 	ldw	r3,28(sp)
   4276c:	6080040c 	andi	r2,r12,16
   42770:	1c400017 	ldw	r17,0(r3)
   42774:	1dc00104 	addi	r23,r3,4
   42778:	1000031e 	bne	r2,zero,42788 <___vfprintf_internal_r+0x904>
   4277c:	6080100c 	andi	r2,r12,64
   42780:	10000126 	beq	r2,zero,42788 <___vfprintf_internal_r+0x904>
   42784:	8c7fffcc 	andi	r17,r17,65535
   42788:	0039883a 	mov	fp,zero
   4278c:	ddc00715 	stw	r23,28(sp)
   42790:	00800044 	movi	r2,1
   42794:	003f2006 	br	42418 <___vfprintf_internal_r+0x594>
   42798:	d8c00717 	ldw	r3,28(sp)
   4279c:	6080040c 	andi	r2,r12,16
   427a0:	1c400017 	ldw	r17,0(r3)
   427a4:	1dc00104 	addi	r23,r3,4
   427a8:	1000031e 	bne	r2,zero,427b8 <___vfprintf_internal_r+0x934>
   427ac:	6080100c 	andi	r2,r12,64
   427b0:	10000126 	beq	r2,zero,427b8 <___vfprintf_internal_r+0x934>
   427b4:	8c7fffcc 	andi	r17,r17,65535
   427b8:	0039883a 	mov	fp,zero
   427bc:	ddc00715 	stw	r23,28(sp)
   427c0:	0005883a 	mov	r2,zero
   427c4:	003f1406 	br	42418 <___vfprintf_internal_r+0x594>
   427c8:	8839d7fa 	srai	fp,r17,31
   427cc:	ddc00715 	stw	r23,28(sp)
   427d0:	e005883a 	mov	r2,fp
   427d4:	003eec06 	br	42388 <___vfprintf_internal_r+0x504>
   427d8:	b819883a 	mov	r12,r23
   427dc:	e0034c1e 	bne	fp,zero,43510 <___vfprintf_internal_r+0x168c>
   427e0:	888002a8 	cmpgeui	r2,r17,10
   427e4:	10034a1e 	bne	r2,zero,43510 <___vfprintf_internal_r+0x168c>
   427e8:	8c400c04 	addi	r17,r17,48
   427ec:	dc4028c5 	stb	r17,163(sp)
   427f0:	602f883a 	mov	r23,r12
   427f4:	07000044 	movi	fp,1
   427f8:	dd8028c4 	addi	r22,sp,163
   427fc:	003f2906 	br	424a4 <___vfprintf_internal_r+0x620>
   42800:	d8800717 	ldw	r2,28(sp)
   42804:	12000017 	ldw	r8,0(r2)
   42808:	10800104 	addi	r2,r2,4
   4280c:	4002cf0e 	bge	r8,zero,4334c <___vfprintf_internal_r+0x14c8>
   42810:	0211c83a 	sub	r8,zero,r8
   42814:	d8800715 	stw	r2,28(sp)
   42818:	9a400007 	ldb	r9,0(r19)
   4281c:	63000114 	ori	r12,r12,4
   42820:	003de706 	br	41fc0 <___vfprintf_internal_r+0x13c>
   42824:	9a400007 	ldb	r9,0(r19)
   42828:	98800044 	addi	r2,r19,1
   4282c:	48c00aa0 	cmpeqi	r3,r9,42
   42830:	1806581e 	bne	r3,zero,44194 <___vfprintf_internal_r+0x2310>
   42834:	48fff404 	addi	r3,r9,-48
   42838:	190002b0 	cmpltui	r4,r3,10
   4283c:	1027883a 	mov	r19,r2
   42840:	002b883a 	mov	r21,zero
   42844:	203ddf26 	beq	r4,zero,41fc4 <___vfprintf_internal_r+0x140>
   42848:	a80490ba 	slli	r2,r21,2
   4284c:	9a400007 	ldb	r9,0(r19)
   42850:	9cc00044 	addi	r19,r19,1
   42854:	156b883a 	add	r21,r2,r21
   42858:	ad6b883a 	add	r21,r21,r21
   4285c:	a8eb883a 	add	r21,r21,r3
   42860:	48fff404 	addi	r3,r9,-48
   42864:	188002b0 	cmpltui	r2,r3,10
   42868:	103ff71e 	bne	r2,zero,42848 <___vfprintf_internal_r+0x9c4>
   4286c:	003dd506 	br	41fc4 <___vfprintf_internal_r+0x140>
   42870:	9a400007 	ldb	r9,0(r19)
   42874:	63002014 	ori	r12,r12,128
   42878:	003dd106 	br	41fc0 <___vfprintf_internal_r+0x13c>
   4287c:	00800ac4 	movi	r2,43
   42880:	9a400007 	ldb	r9,0(r19)
   42884:	d8801545 	stb	r2,85(sp)
   42888:	003dcd06 	br	41fc0 <___vfprintf_internal_r+0x13c>
   4288c:	9a400007 	ldb	r9,0(r19)
   42890:	63000054 	ori	r12,r12,1
   42894:	003dca06 	br	41fc0 <___vfprintf_internal_r+0x13c>
   42898:	d8801547 	ldb	r2,85(sp)
   4289c:	9a400003 	ldbu	r9,0(r19)
   428a0:	10000c1e 	bne	r2,zero,428d4 <___vfprintf_internal_r+0xa50>
   428a4:	4a403fcc 	andi	r9,r9,255
   428a8:	00800804 	movi	r2,32
   428ac:	4a40201c 	xori	r9,r9,128
   428b0:	d8801545 	stb	r2,85(sp)
   428b4:	4a7fe004 	addi	r9,r9,-128
   428b8:	003dc106 	br	41fc0 <___vfprintf_internal_r+0x13c>
   428bc:	9a400007 	ldb	r9,0(r19)
   428c0:	48801b18 	cmpnei	r2,r9,108
   428c4:	10029f1e 	bne	r2,zero,43344 <___vfprintf_internal_r+0x14c0>
   428c8:	9a400043 	ldbu	r9,1(r19)
   428cc:	63000814 	ori	r12,r12,32
   428d0:	9cc00044 	addi	r19,r19,1
   428d4:	4a403fcc 	andi	r9,r9,255
   428d8:	4a40201c 	xori	r9,r9,128
   428dc:	4a7fe004 	addi	r9,r9,-128
   428e0:	003db706 	br	41fc0 <___vfprintf_internal_r+0x13c>
   428e4:	9a400007 	ldb	r9,0(r19)
   428e8:	63000214 	ori	r12,r12,8
   428ec:	003db406 	br	41fc0 <___vfprintf_internal_r+0x13c>
   428f0:	9a400007 	ldb	r9,0(r19)
   428f4:	63001014 	ori	r12,r12,64
   428f8:	003db106 	br	41fc0 <___vfprintf_internal_r+0x13c>
   428fc:	d8c00717 	ldw	r3,28(sp)
   42900:	d8001545 	stb	zero,85(sp)
   42904:	02c00044 	movi	r11,1
   42908:	18800017 	ldw	r2,0(r3)
   4290c:	18c00104 	addi	r3,r3,4
   42910:	d8c00715 	stw	r3,28(sp)
   42914:	d8801f05 	stb	r2,124(sp)
   42918:	07000044 	movi	fp,1
   4291c:	dd801f04 	addi	r22,sp,124
   42920:	003e1d06 	br	42198 <___vfprintf_internal_r+0x314>
   42924:	d8800717 	ldw	r2,28(sp)
   42928:	d8001545 	stb	zero,85(sp)
   4292c:	15800017 	ldw	r22,0(r2)
   42930:	15c00104 	addi	r23,r2,4
   42934:	b002ca26 	beq	r22,zero,43460 <___vfprintf_internal_r+0x15dc>
   42938:	da000f15 	stw	r8,60(sp)
   4293c:	db000815 	stw	r12,32(sp)
   42940:	da400715 	stw	r9,28(sp)
   42944:	a8bfffe0 	cmpeqi	r2,r21,-1
   42948:	10031e1e 	bne	r2,zero,435c4 <___vfprintf_internal_r+0x1740>
   4294c:	a80d883a 	mov	r6,r21
   42950:	000b883a 	mov	r5,zero
   42954:	b009883a 	mov	r4,r22
   42958:	00467bc0 	call	467bc <memchr>
   4295c:	da400717 	ldw	r9,28(sp)
   42960:	db000817 	ldw	r12,32(sp)
   42964:	da000f17 	ldw	r8,60(sp)
   42968:	10058226 	beq	r2,zero,43f74 <___vfprintf_internal_r+0x20f0>
   4296c:	15b9c83a 	sub	fp,r2,r22
   42970:	d9001543 	ldbu	r4,85(sp)
   42974:	e017883a 	mov	r11,fp
   42978:	e0031b16 	blt	fp,zero,435e8 <___vfprintf_internal_r+0x1764>
   4297c:	ddc00715 	stw	r23,28(sp)
   42980:	002b883a 	mov	r21,zero
   42984:	602f883a 	mov	r23,r12
   42988:	d8000815 	stw	zero,32(sp)
   4298c:	003ec906 	br	424b4 <___vfprintf_internal_r+0x630>
   42990:	9a400007 	ldb	r9,0(r19)
   42994:	63000814 	ori	r12,r12,32
   42998:	003d8906 	br	41fc0 <___vfprintf_internal_r+0x13c>
   4299c:	d8c00717 	ldw	r3,28(sp)
   429a0:	009e0c04 	movi	r2,30768
   429a4:	01000174 	movhi	r4,5
   429a8:	d880158d 	sth	r2,86(sp)
   429ac:	18800104 	addi	r2,r3,4
   429b0:	d8800715 	stw	r2,28(sp)
   429b4:	2081a204 	addi	r2,r4,1672
   429b8:	d8800e15 	stw	r2,56(sp)
   429bc:	1c400017 	ldw	r17,0(r3)
   429c0:	0039883a 	mov	fp,zero
   429c4:	63000094 	ori	r12,r12,2
   429c8:	00800084 	movi	r2,2
   429cc:	02401e04 	movi	r9,120
   429d0:	003e9106 	br	42418 <___vfprintf_internal_r+0x594>
   429d4:	6080080c 	andi	r2,r12,32
   429d8:	10026626 	beq	r2,zero,43374 <___vfprintf_internal_r+0x14f0>
   429dc:	d9000617 	ldw	r4,24(sp)
   429e0:	d8800717 	ldw	r2,28(sp)
   429e4:	2007d7fa 	srai	r3,r4,31
   429e8:	10800017 	ldw	r2,0(r2)
   429ec:	11000015 	stw	r4,0(r2)
   429f0:	10c00115 	stw	r3,4(r2)
   429f4:	d8800717 	ldw	r2,28(sp)
   429f8:	10800104 	addi	r2,r2,4
   429fc:	d8800715 	stw	r2,28(sp)
   42a00:	003d5906 	br	41f68 <___vfprintf_internal_r+0xe4>
   42a04:	4a401990 	cmplti	r9,r9,102
   42a08:	4800dd1e 	bne	r9,zero,42d80 <___vfprintf_internal_r+0xefc>
   42a0c:	d9000a17 	ldw	r4,40(sp)
   42a10:	d9400b17 	ldw	r5,44(sp)
   42a14:	000d883a 	mov	r6,zero
   42a18:	000f883a 	mov	r7,zero
   42a1c:	dac01015 	stw	r11,64(sp)
   42a20:	da000f15 	stw	r8,60(sp)
   42a24:	004c9980 	call	4c998 <__eqdf2>
   42a28:	da000f17 	ldw	r8,60(sp)
   42a2c:	dac01017 	ldw	r11,64(sp)
   42a30:	1001871e 	bne	r2,zero,43050 <___vfprintf_internal_r+0x11cc>
   42a34:	d8801d17 	ldw	r2,116(sp)
   42a38:	00c00174 	movhi	r3,5
   42a3c:	18c1a904 	addi	r3,r3,1700
   42a40:	10800044 	addi	r2,r2,1
   42a44:	8c400044 	addi	r17,r17,1
   42a48:	80c00015 	stw	r3,0(r16)
   42a4c:	00c00044 	movi	r3,1
   42a50:	d8801d15 	stw	r2,116(sp)
   42a54:	80c00115 	stw	r3,4(r16)
   42a58:	dc401e15 	stw	r17,120(sp)
   42a5c:	10800208 	cmpgei	r2,r2,8
   42a60:	1003aa1e 	bne	r2,zero,4390c <___vfprintf_internal_r+0x1a88>
   42a64:	84000204 	addi	r16,r16,8
   42a68:	d8801617 	ldw	r2,88(sp)
   42a6c:	d8c00917 	ldw	r3,36(sp)
   42a70:	10c2310e 	bge	r2,r3,43338 <___vfprintf_internal_r+0x14b4>
   42a74:	d8800d17 	ldw	r2,52(sp)
   42a78:	d8c00c17 	ldw	r3,48(sp)
   42a7c:	80800015 	stw	r2,0(r16)
   42a80:	d8801d17 	ldw	r2,116(sp)
   42a84:	88e3883a 	add	r17,r17,r3
   42a88:	80c00115 	stw	r3,4(r16)
   42a8c:	10800044 	addi	r2,r2,1
   42a90:	d8801d15 	stw	r2,116(sp)
   42a94:	dc401e15 	stw	r17,120(sp)
   42a98:	10800208 	cmpgei	r2,r2,8
   42a9c:	10024c1e 	bne	r2,zero,433d0 <___vfprintf_internal_r+0x154c>
   42aa0:	84000204 	addi	r16,r16,8
   42aa4:	d8800917 	ldw	r2,36(sp)
   42aa8:	157fffc4 	addi	r21,r2,-1
   42aac:	057df00e 	bge	zero,r21,42270 <___vfprintf_internal_r+0x3ec>
   42ab0:	03000174 	movhi	r12,5
   42ab4:	a8c00450 	cmplti	r3,r21,17
   42ab8:	d8801d17 	ldw	r2,116(sp)
   42abc:	6301aa04 	addi	r12,r12,1704
   42ac0:	18012d1e 	bne	r3,zero,42f78 <___vfprintf_internal_r+0x10f4>
   42ac4:	8007883a 	mov	r3,r16
   42ac8:	8809883a 	mov	r4,r17
   42acc:	a821883a 	mov	r16,r21
   42ad0:	05800404 	movi	r22,16
   42ad4:	a02b883a 	mov	r21,r20
   42ad8:	4023883a 	mov	r17,r8
   42adc:	9829883a 	mov	r20,r19
   42ae0:	6039883a 	mov	fp,r12
   42ae4:	5827883a 	mov	r19,r11
   42ae8:	00000406 	br	42afc <___vfprintf_internal_r+0xc78>
   42aec:	18c00204 	addi	r3,r3,8
   42af0:	843ffc04 	addi	r16,r16,-16
   42af4:	81400448 	cmpgei	r5,r16,17
   42af8:	28011726 	beq	r5,zero,42f58 <___vfprintf_internal_r+0x10d4>
   42afc:	10800044 	addi	r2,r2,1
   42b00:	21000404 	addi	r4,r4,16
   42b04:	1f000015 	stw	fp,0(r3)
   42b08:	1d800115 	stw	r22,4(r3)
   42b0c:	d9001e15 	stw	r4,120(sp)
   42b10:	d8801d15 	stw	r2,116(sp)
   42b14:	11400208 	cmpgei	r5,r2,8
   42b18:	283ff426 	beq	r5,zero,42aec <___vfprintf_internal_r+0xc68>
   42b1c:	d9400417 	ldw	r5,16(sp)
   42b20:	d9000517 	ldw	r4,20(sp)
   42b24:	d9801c04 	addi	r6,sp,112
   42b28:	00443dc0 	call	443dc <__sprint_r>
   42b2c:	103de01e 	bne	r2,zero,422b0 <___vfprintf_internal_r+0x42c>
   42b30:	d9001e17 	ldw	r4,120(sp)
   42b34:	d8801d17 	ldw	r2,116(sp)
   42b38:	9007883a 	mov	r3,r18
   42b3c:	003fec06 	br	42af0 <___vfprintf_internal_r+0xc6c>
   42b40:	42c7c83a 	sub	r3,r8,r11
   42b44:	00fdbc0e 	bge	zero,r3,42238 <___vfprintf_internal_r+0x3b4>
   42b48:	03000174 	movhi	r12,5
   42b4c:	19000450 	cmplti	r4,r3,17
   42b50:	d8801d17 	ldw	r2,116(sp)
   42b54:	6301aa04 	addi	r12,r12,1704
   42b58:	2000281e 	bne	r4,zero,42bfc <___vfprintf_internal_r+0xd78>
   42b5c:	8009883a 	mov	r4,r16
   42b60:	880b883a 	mov	r5,r17
   42b64:	03400404 	movi	r13,16
   42b68:	da400f15 	stw	r9,60(sp)
   42b6c:	da001015 	stw	r8,64(sp)
   42b70:	1821883a 	mov	r16,r3
   42b74:	dac01215 	stw	r11,72(sp)
   42b78:	6023883a 	mov	r17,r12
   42b7c:	00000406 	br	42b90 <___vfprintf_internal_r+0xd0c>
   42b80:	843ffc04 	addi	r16,r16,-16
   42b84:	81800448 	cmpgei	r6,r16,17
   42b88:	21000204 	addi	r4,r4,8
   42b8c:	30001426 	beq	r6,zero,42be0 <___vfprintf_internal_r+0xd5c>
   42b90:	10800044 	addi	r2,r2,1
   42b94:	29400404 	addi	r5,r5,16
   42b98:	24400015 	stw	r17,0(r4)
   42b9c:	23400115 	stw	r13,4(r4)
   42ba0:	d9401e15 	stw	r5,120(sp)
   42ba4:	d8801d15 	stw	r2,116(sp)
   42ba8:	11800208 	cmpgei	r6,r2,8
   42bac:	303ff426 	beq	r6,zero,42b80 <___vfprintf_internal_r+0xcfc>
   42bb0:	d9400417 	ldw	r5,16(sp)
   42bb4:	d9000517 	ldw	r4,20(sp)
   42bb8:	d9801c04 	addi	r6,sp,112
   42bbc:	00443dc0 	call	443dc <__sprint_r>
   42bc0:	103dbb1e 	bne	r2,zero,422b0 <___vfprintf_internal_r+0x42c>
   42bc4:	843ffc04 	addi	r16,r16,-16
   42bc8:	81800448 	cmpgei	r6,r16,17
   42bcc:	d9401e17 	ldw	r5,120(sp)
   42bd0:	d8801d17 	ldw	r2,116(sp)
   42bd4:	9009883a 	mov	r4,r18
   42bd8:	03400404 	movi	r13,16
   42bdc:	303fec1e 	bne	r6,zero,42b90 <___vfprintf_internal_r+0xd0c>
   42be0:	da400f17 	ldw	r9,60(sp)
   42be4:	da001017 	ldw	r8,64(sp)
   42be8:	dac01217 	ldw	r11,72(sp)
   42bec:	8007883a 	mov	r3,r16
   42bf0:	8819883a 	mov	r12,r17
   42bf4:	2021883a 	mov	r16,r4
   42bf8:	2823883a 	mov	r17,r5
   42bfc:	10800044 	addi	r2,r2,1
   42c00:	88e3883a 	add	r17,r17,r3
   42c04:	d8801d15 	stw	r2,116(sp)
   42c08:	83000015 	stw	r12,0(r16)
   42c0c:	80c00115 	stw	r3,4(r16)
   42c10:	dc401e15 	stw	r17,120(sp)
   42c14:	10800208 	cmpgei	r2,r2,8
   42c18:	1003581e 	bne	r2,zero,4397c <___vfprintf_internal_r+0x1af8>
   42c1c:	af2bc83a 	sub	r21,r21,fp
   42c20:	84000204 	addi	r16,r16,8
   42c24:	057d860e 	bge	zero,r21,42240 <___vfprintf_internal_r+0x3bc>
   42c28:	a8c00450 	cmplti	r3,r21,17
   42c2c:	d8801d17 	ldw	r2,116(sp)
   42c30:	18039d1e 	bne	r3,zero,43aa8 <___vfprintf_internal_r+0x1c24>
   42c34:	8009883a 	mov	r4,r16
   42c38:	880b883a 	mov	r5,r17
   42c3c:	a821883a 	mov	r16,r21
   42c40:	a023883a 	mov	r17,r20
   42c44:	a02b883a 	mov	r21,r20
   42c48:	00c00404 	movi	r3,16
   42c4c:	9829883a 	mov	r20,r19
   42c50:	da400f15 	stw	r9,60(sp)
   42c54:	da001015 	stw	r8,64(sp)
   42c58:	5827883a 	mov	r19,r11
   42c5c:	00000406 	br	42c70 <___vfprintf_internal_r+0xdec>
   42c60:	843ffc04 	addi	r16,r16,-16
   42c64:	81800448 	cmpgei	r6,r16,17
   42c68:	21000204 	addi	r4,r4,8
   42c6c:	30001426 	beq	r6,zero,42cc0 <___vfprintf_internal_r+0xe3c>
   42c70:	10800044 	addi	r2,r2,1
   42c74:	29400404 	addi	r5,r5,16
   42c78:	24400015 	stw	r17,0(r4)
   42c7c:	20c00115 	stw	r3,4(r4)
   42c80:	d9401e15 	stw	r5,120(sp)
   42c84:	d8801d15 	stw	r2,116(sp)
   42c88:	11800208 	cmpgei	r6,r2,8
   42c8c:	303ff426 	beq	r6,zero,42c60 <___vfprintf_internal_r+0xddc>
   42c90:	d9400417 	ldw	r5,16(sp)
   42c94:	d9000517 	ldw	r4,20(sp)
   42c98:	d9801c04 	addi	r6,sp,112
   42c9c:	00443dc0 	call	443dc <__sprint_r>
   42ca0:	103d831e 	bne	r2,zero,422b0 <___vfprintf_internal_r+0x42c>
   42ca4:	843ffc04 	addi	r16,r16,-16
   42ca8:	81800448 	cmpgei	r6,r16,17
   42cac:	d9401e17 	ldw	r5,120(sp)
   42cb0:	d8801d17 	ldw	r2,116(sp)
   42cb4:	9009883a 	mov	r4,r18
   42cb8:	00c00404 	movi	r3,16
   42cbc:	303fec1e 	bne	r6,zero,42c70 <___vfprintf_internal_r+0xdec>
   42cc0:	da400f17 	ldw	r9,60(sp)
   42cc4:	da001017 	ldw	r8,64(sp)
   42cc8:	9817883a 	mov	r11,r19
   42ccc:	a819883a 	mov	r12,r21
   42cd0:	a027883a 	mov	r19,r20
   42cd4:	802b883a 	mov	r21,r16
   42cd8:	8829883a 	mov	r20,r17
   42cdc:	2021883a 	mov	r16,r4
   42ce0:	2823883a 	mov	r17,r5
   42ce4:	10800044 	addi	r2,r2,1
   42ce8:	8d63883a 	add	r17,r17,r21
   42cec:	d8801d15 	stw	r2,116(sp)
   42cf0:	83000015 	stw	r12,0(r16)
   42cf4:	85400115 	stw	r21,4(r16)
   42cf8:	dc401e15 	stw	r17,120(sp)
   42cfc:	10800208 	cmpgei	r2,r2,8
   42d00:	1001731e 	bne	r2,zero,432d0 <___vfprintf_internal_r+0x144c>
   42d04:	84000204 	addi	r16,r16,8
   42d08:	003d4d06 	br	42240 <___vfprintf_internal_r+0x3bc>
   42d0c:	10c00060 	cmpeqi	r3,r2,1
   42d10:	b819883a 	mov	r12,r23
   42d14:	0023883a 	mov	r17,zero
   42d18:	183eb31e 	bne	r3,zero,427e8 <___vfprintf_internal_r+0x964>
   42d1c:	108000a0 	cmpeqi	r2,r2,2
   42d20:	0039883a 	mov	fp,zero
   42d24:	103dc926 	beq	r2,zero,4244c <___vfprintf_internal_r+0x5c8>
   42d28:	d9400e17 	ldw	r5,56(sp)
   42d2c:	902d883a 	mov	r22,r18
   42d30:	888003cc 	andi	r2,r17,15
   42d34:	e006973a 	slli	r3,fp,28
   42d38:	8822d13a 	srli	r17,r17,4
   42d3c:	2885883a 	add	r2,r5,r2
   42d40:	10800003 	ldbu	r2,0(r2)
   42d44:	e038d13a 	srli	fp,fp,4
   42d48:	1c62b03a 	or	r17,r3,r17
   42d4c:	b0bfffc5 	stb	r2,-1(r22)
   42d50:	8f04b03a 	or	r2,r17,fp
   42d54:	b5bfffc4 	addi	r22,r22,-1
   42d58:	103ff51e 	bne	r2,zero,42d30 <___vfprintf_internal_r+0xeac>
   42d5c:	95b9c83a 	sub	fp,r18,r22
   42d60:	602f883a 	mov	r23,r12
   42d64:	003dcf06 	br	424a4 <___vfprintf_internal_r+0x620>
   42d68:	d9400417 	ldw	r5,16(sp)
   42d6c:	d9000517 	ldw	r4,20(sp)
   42d70:	d9801c04 	addi	r6,sp,112
   42d74:	00443dc0 	call	443dc <__sprint_r>
   42d78:	103d4726 	beq	r2,zero,42298 <___vfprintf_internal_r+0x414>
   42d7c:	003d4c06 	br	422b0 <___vfprintf_internal_r+0x42c>
   42d80:	d8800917 	ldw	r2,36(sp)
   42d84:	dd401d17 	ldw	r21,116(sp)
   42d88:	8c400044 	addi	r17,r17,1
   42d8c:	10800088 	cmpgei	r2,r2,2
   42d90:	ad400044 	addi	r21,r21,1
   42d94:	87000204 	addi	fp,r16,8
   42d98:	10011026 	beq	r2,zero,431dc <___vfprintf_internal_r+0x1358>
   42d9c:	00800044 	movi	r2,1
   42da0:	80800115 	stw	r2,4(r16)
   42da4:	85800015 	stw	r22,0(r16)
   42da8:	dc401e15 	stw	r17,120(sp)
   42dac:	dd401d15 	stw	r21,116(sp)
   42db0:	a8800210 	cmplti	r2,r21,8
   42db4:	10021e26 	beq	r2,zero,43630 <___vfprintf_internal_r+0x17ac>
   42db8:	d8800c17 	ldw	r2,48(sp)
   42dbc:	d8c00d17 	ldw	r3,52(sp)
   42dc0:	ad400044 	addi	r21,r21,1
   42dc4:	88a3883a 	add	r17,r17,r2
   42dc8:	e0800115 	stw	r2,4(fp)
   42dcc:	e0c00015 	stw	r3,0(fp)
   42dd0:	dc401e15 	stw	r17,120(sp)
   42dd4:	dd401d15 	stw	r21,116(sp)
   42dd8:	a8800208 	cmpgei	r2,r21,8
   42ddc:	1002211e 	bne	r2,zero,43664 <___vfprintf_internal_r+0x17e0>
   42de0:	e7000204 	addi	fp,fp,8
   42de4:	d9000a17 	ldw	r4,40(sp)
   42de8:	d9400b17 	ldw	r5,44(sp)
   42dec:	000d883a 	mov	r6,zero
   42df0:	000f883a 	mov	r7,zero
   42df4:	dac00f15 	stw	r11,60(sp)
   42df8:	da000815 	stw	r8,32(sp)
   42dfc:	004c9980 	call	4c998 <__eqdf2>
   42e00:	d8c00917 	ldw	r3,36(sp)
   42e04:	da000817 	ldw	r8,32(sp)
   42e08:	dac00f17 	ldw	r11,60(sp)
   42e0c:	1c3fffc4 	addi	r16,r3,-1
   42e10:	10010826 	beq	r2,zero,43234 <___vfprintf_internal_r+0x13b0>
   42e14:	b5800044 	addi	r22,r22,1
   42e18:	ad400044 	addi	r21,r21,1
   42e1c:	8c23883a 	add	r17,r17,r16
   42e20:	e5800015 	stw	r22,0(fp)
   42e24:	e4000115 	stw	r16,4(fp)
   42e28:	dc401e15 	stw	r17,120(sp)
   42e2c:	dd401d15 	stw	r21,116(sp)
   42e30:	a8800208 	cmpgei	r2,r21,8
   42e34:	1002c11e 	bne	r2,zero,4393c <___vfprintf_internal_r+0x1ab8>
   42e38:	e7000204 	addi	fp,fp,8
   42e3c:	d8c01117 	ldw	r3,68(sp)
   42e40:	ad400044 	addi	r21,r21,1
   42e44:	d8801804 	addi	r2,sp,96
   42e48:	1c63883a 	add	r17,r3,r17
   42e4c:	dd401d15 	stw	r21,116(sp)
   42e50:	e0800015 	stw	r2,0(fp)
   42e54:	e0c00115 	stw	r3,4(fp)
   42e58:	dc401e15 	stw	r17,120(sp)
   42e5c:	ad400208 	cmpgei	r21,r21,8
   42e60:	a801291e 	bne	r21,zero,43308 <___vfprintf_internal_r+0x1484>
   42e64:	e4000204 	addi	r16,fp,8
   42e68:	003d0106 	br	42270 <___vfprintf_internal_r+0x3ec>
   42e6c:	03000174 	movhi	r12,5
   42e70:	19000450 	cmplti	r4,r3,17
   42e74:	d8801d17 	ldw	r2,116(sp)
   42e78:	6301ae04 	addi	r12,r12,1720
   42e7c:	20002c1e 	bne	r4,zero,42f30 <___vfprintf_internal_r+0x10ac>
   42e80:	8009883a 	mov	r4,r16
   42e84:	880b883a 	mov	r5,r17
   42e88:	03c00404 	movi	r15,16
   42e8c:	db800f15 	stw	r14,60(sp)
   42e90:	db401015 	stw	r13,64(sp)
   42e94:	da401215 	stw	r9,72(sp)
   42e98:	da001315 	stw	r8,76(sp)
   42e9c:	1821883a 	mov	r16,r3
   42ea0:	dac01415 	stw	r11,80(sp)
   42ea4:	6023883a 	mov	r17,r12
   42ea8:	00000406 	br	42ebc <___vfprintf_internal_r+0x1038>
   42eac:	843ffc04 	addi	r16,r16,-16
   42eb0:	81800448 	cmpgei	r6,r16,17
   42eb4:	21000204 	addi	r4,r4,8
   42eb8:	30001426 	beq	r6,zero,42f0c <___vfprintf_internal_r+0x1088>
   42ebc:	10800044 	addi	r2,r2,1
   42ec0:	29400404 	addi	r5,r5,16
   42ec4:	24400015 	stw	r17,0(r4)
   42ec8:	23c00115 	stw	r15,4(r4)
   42ecc:	d9401e15 	stw	r5,120(sp)
   42ed0:	d8801d15 	stw	r2,116(sp)
   42ed4:	11800208 	cmpgei	r6,r2,8
   42ed8:	303ff426 	beq	r6,zero,42eac <___vfprintf_internal_r+0x1028>
   42edc:	d9400417 	ldw	r5,16(sp)
   42ee0:	d9000517 	ldw	r4,20(sp)
   42ee4:	d9801c04 	addi	r6,sp,112
   42ee8:	00443dc0 	call	443dc <__sprint_r>
   42eec:	103cf01e 	bne	r2,zero,422b0 <___vfprintf_internal_r+0x42c>
   42ef0:	843ffc04 	addi	r16,r16,-16
   42ef4:	81800448 	cmpgei	r6,r16,17
   42ef8:	d9401e17 	ldw	r5,120(sp)
   42efc:	d8801d17 	ldw	r2,116(sp)
   42f00:	9009883a 	mov	r4,r18
   42f04:	03c00404 	movi	r15,16
   42f08:	303fec1e 	bne	r6,zero,42ebc <___vfprintf_internal_r+0x1038>
   42f0c:	db800f17 	ldw	r14,60(sp)
   42f10:	db401017 	ldw	r13,64(sp)
   42f14:	da401217 	ldw	r9,72(sp)
   42f18:	da001317 	ldw	r8,76(sp)
   42f1c:	dac01417 	ldw	r11,80(sp)
   42f20:	8007883a 	mov	r3,r16
   42f24:	8819883a 	mov	r12,r17
   42f28:	2021883a 	mov	r16,r4
   42f2c:	2823883a 	mov	r17,r5
   42f30:	10800044 	addi	r2,r2,1
   42f34:	88e3883a 	add	r17,r17,r3
   42f38:	d8801d15 	stw	r2,116(sp)
   42f3c:	83000015 	stw	r12,0(r16)
   42f40:	80c00115 	stw	r3,4(r16)
   42f44:	dc401e15 	stw	r17,120(sp)
   42f48:	10800208 	cmpgei	r2,r2,8
   42f4c:	1001fa1e 	bne	r2,zero,43738 <___vfprintf_internal_r+0x18b4>
   42f50:	84000204 	addi	r16,r16,8
   42f54:	003c9b06 	br	421c4 <___vfprintf_internal_r+0x340>
   42f58:	8811883a 	mov	r8,r17
   42f5c:	9817883a 	mov	r11,r19
   42f60:	2023883a 	mov	r17,r4
   42f64:	a027883a 	mov	r19,r20
   42f68:	e019883a 	mov	r12,fp
   42f6c:	a829883a 	mov	r20,r21
   42f70:	802b883a 	mov	r21,r16
   42f74:	1821883a 	mov	r16,r3
   42f78:	10800044 	addi	r2,r2,1
   42f7c:	83000015 	stw	r12,0(r16)
   42f80:	85400115 	stw	r21,4(r16)
   42f84:	8d63883a 	add	r17,r17,r21
   42f88:	d8801d15 	stw	r2,116(sp)
   42f8c:	dc401e15 	stw	r17,120(sp)
   42f90:	10800208 	cmpgei	r2,r2,8
   42f94:	103cb526 	beq	r2,zero,4226c <___vfprintf_internal_r+0x3e8>
   42f98:	d9400417 	ldw	r5,16(sp)
   42f9c:	d9000517 	ldw	r4,20(sp)
   42fa0:	d9801c04 	addi	r6,sp,112
   42fa4:	dac00f15 	stw	r11,60(sp)
   42fa8:	da000815 	stw	r8,32(sp)
   42fac:	00443dc0 	call	443dc <__sprint_r>
   42fb0:	103cbf1e 	bne	r2,zero,422b0 <___vfprintf_internal_r+0x42c>
   42fb4:	dc401e17 	ldw	r17,120(sp)
   42fb8:	da000817 	ldw	r8,32(sp)
   42fbc:	dac00f17 	ldw	r11,60(sp)
   42fc0:	9021883a 	mov	r16,r18
   42fc4:	003caa06 	br	42270 <___vfprintf_internal_r+0x3ec>
   42fc8:	d9400417 	ldw	r5,16(sp)
   42fcc:	d9000517 	ldw	r4,20(sp)
   42fd0:	d9801c04 	addi	r6,sp,112
   42fd4:	dac01415 	stw	r11,80(sp)
   42fd8:	da001315 	stw	r8,76(sp)
   42fdc:	da401215 	stw	r9,72(sp)
   42fe0:	db401015 	stw	r13,64(sp)
   42fe4:	db800f15 	stw	r14,60(sp)
   42fe8:	00443dc0 	call	443dc <__sprint_r>
   42fec:	103cb01e 	bne	r2,zero,422b0 <___vfprintf_internal_r+0x42c>
   42ff0:	dc401e17 	ldw	r17,120(sp)
   42ff4:	dac01417 	ldw	r11,80(sp)
   42ff8:	da001317 	ldw	r8,76(sp)
   42ffc:	da401217 	ldw	r9,72(sp)
   43000:	db401017 	ldw	r13,64(sp)
   43004:	db800f17 	ldw	r14,60(sp)
   43008:	9021883a 	mov	r16,r18
   4300c:	003c7b06 	br	421fc <___vfprintf_internal_r+0x378>
   43010:	d9400417 	ldw	r5,16(sp)
   43014:	d9000517 	ldw	r4,20(sp)
   43018:	d9801c04 	addi	r6,sp,112
   4301c:	dac01315 	stw	r11,76(sp)
   43020:	da001215 	stw	r8,72(sp)
   43024:	da401015 	stw	r9,64(sp)
   43028:	db400f15 	stw	r13,60(sp)
   4302c:	00443dc0 	call	443dc <__sprint_r>
   43030:	103c9f1e 	bne	r2,zero,422b0 <___vfprintf_internal_r+0x42c>
   43034:	dc401e17 	ldw	r17,120(sp)
   43038:	dac01317 	ldw	r11,76(sp)
   4303c:	da001217 	ldw	r8,72(sp)
   43040:	da401017 	ldw	r9,64(sp)
   43044:	db400f17 	ldw	r13,60(sp)
   43048:	9021883a 	mov	r16,r18
   4304c:	003c7806 	br	42230 <___vfprintf_internal_r+0x3ac>
   43050:	dd401617 	ldw	r21,88(sp)
   43054:	0541900e 	bge	zero,r21,43698 <___vfprintf_internal_r+0x1814>
   43058:	d8800917 	ldw	r2,36(sp)
   4305c:	d8c00817 	ldw	r3,32(sp)
   43060:	102b883a 	mov	r21,r2
   43064:	1880cc16 	blt	r3,r2,43398 <___vfprintf_internal_r+0x1514>
   43068:	05400a0e 	bge	zero,r21,43094 <___vfprintf_internal_r+0x1210>
   4306c:	d8801d17 	ldw	r2,116(sp)
   43070:	8d63883a 	add	r17,r17,r21
   43074:	85800015 	stw	r22,0(r16)
   43078:	10800044 	addi	r2,r2,1
   4307c:	d8801d15 	stw	r2,116(sp)
   43080:	85400115 	stw	r21,4(r16)
   43084:	dc401e15 	stw	r17,120(sp)
   43088:	10800208 	cmpgei	r2,r2,8
   4308c:	10038a1e 	bne	r2,zero,43eb8 <___vfprintf_internal_r+0x2034>
   43090:	84000204 	addi	r16,r16,8
   43094:	a800cc16 	blt	r21,zero,433c8 <___vfprintf_internal_r+0x1544>
   43098:	d8800817 	ldw	r2,32(sp)
   4309c:	156bc83a 	sub	r21,r2,r21
   430a0:	0540f716 	blt	zero,r21,43480 <___vfprintf_internal_r+0x15fc>
   430a4:	d8801617 	ldw	r2,88(sp)
   430a8:	d8c00917 	ldw	r3,36(sp)
   430ac:	10c0bd0e 	bge	r2,r3,433a4 <___vfprintf_internal_r+0x1520>
   430b0:	d8c00d17 	ldw	r3,52(sp)
   430b4:	d9000c17 	ldw	r4,48(sp)
   430b8:	80c00015 	stw	r3,0(r16)
   430bc:	d8c01d17 	ldw	r3,116(sp)
   430c0:	8923883a 	add	r17,r17,r4
   430c4:	81000115 	stw	r4,4(r16)
   430c8:	18c00044 	addi	r3,r3,1
   430cc:	d8c01d15 	stw	r3,116(sp)
   430d0:	dc401e15 	stw	r17,120(sp)
   430d4:	18c00208 	cmpgei	r3,r3,8
   430d8:	18035e1e 	bne	r3,zero,43e54 <___vfprintf_internal_r+0x1fd0>
   430dc:	84000204 	addi	r16,r16,8
   430e0:	d8c00917 	ldw	r3,36(sp)
   430e4:	d9000817 	ldw	r4,32(sp)
   430e8:	1885c83a 	sub	r2,r3,r2
   430ec:	192bc83a 	sub	r21,r3,r4
   430f0:	1540010e 	bge	r2,r21,430f8 <___vfprintf_internal_r+0x1274>
   430f4:	102b883a 	mov	r21,r2
   430f8:	05400c0e 	bge	zero,r21,4312c <___vfprintf_internal_r+0x12a8>
   430fc:	d8c00817 	ldw	r3,32(sp)
   43100:	8d63883a 	add	r17,r17,r21
   43104:	85400115 	stw	r21,4(r16)
   43108:	b0ed883a 	add	r22,r22,r3
   4310c:	d8c01d17 	ldw	r3,116(sp)
   43110:	85800015 	stw	r22,0(r16)
   43114:	dc401e15 	stw	r17,120(sp)
   43118:	18c00044 	addi	r3,r3,1
   4311c:	d8c01d15 	stw	r3,116(sp)
   43120:	18c00208 	cmpgei	r3,r3,8
   43124:	1803731e 	bne	r3,zero,43ef4 <___vfprintf_internal_r+0x2070>
   43128:	84000204 	addi	r16,r16,8
   4312c:	a800010e 	bge	r21,zero,43134 <___vfprintf_internal_r+0x12b0>
   43130:	002b883a 	mov	r21,zero
   43134:	156bc83a 	sub	r21,r2,r21
   43138:	057c4d0e 	bge	zero,r21,42270 <___vfprintf_internal_r+0x3ec>
   4313c:	03000174 	movhi	r12,5
   43140:	a8c00450 	cmplti	r3,r21,17
   43144:	d8801d17 	ldw	r2,116(sp)
   43148:	6301aa04 	addi	r12,r12,1704
   4314c:	183f8a1e 	bne	r3,zero,42f78 <___vfprintf_internal_r+0x10f4>
   43150:	8007883a 	mov	r3,r16
   43154:	8809883a 	mov	r4,r17
   43158:	a821883a 	mov	r16,r21
   4315c:	df000517 	ldw	fp,20(sp)
   43160:	a02b883a 	mov	r21,r20
   43164:	05800404 	movi	r22,16
   43168:	9829883a 	mov	r20,r19
   4316c:	da000815 	stw	r8,32(sp)
   43170:	6023883a 	mov	r17,r12
   43174:	5827883a 	mov	r19,r11
   43178:	00000406 	br	4318c <___vfprintf_internal_r+0x1308>
   4317c:	18c00204 	addi	r3,r3,8
   43180:	843ffc04 	addi	r16,r16,-16
   43184:	81400448 	cmpgei	r5,r16,17
   43188:	28033f26 	beq	r5,zero,43e88 <___vfprintf_internal_r+0x2004>
   4318c:	10800044 	addi	r2,r2,1
   43190:	21000404 	addi	r4,r4,16
   43194:	1c400015 	stw	r17,0(r3)
   43198:	1d800115 	stw	r22,4(r3)
   4319c:	d9001e15 	stw	r4,120(sp)
   431a0:	d8801d15 	stw	r2,116(sp)
   431a4:	11400208 	cmpgei	r5,r2,8
   431a8:	283ff426 	beq	r5,zero,4317c <___vfprintf_internal_r+0x12f8>
   431ac:	d9400417 	ldw	r5,16(sp)
   431b0:	d9801c04 	addi	r6,sp,112
   431b4:	e009883a 	mov	r4,fp
   431b8:	00443dc0 	call	443dc <__sprint_r>
   431bc:	103c3c1e 	bne	r2,zero,422b0 <___vfprintf_internal_r+0x42c>
   431c0:	d9001e17 	ldw	r4,120(sp)
   431c4:	d8801d17 	ldw	r2,116(sp)
   431c8:	9007883a 	mov	r3,r18
   431cc:	003fec06 	br	43180 <___vfprintf_internal_r+0x12fc>
   431d0:	0039883a 	mov	fp,zero
   431d4:	902d883a 	mov	r22,r18
   431d8:	003cb206 	br	424a4 <___vfprintf_internal_r+0x620>
   431dc:	b880004c 	andi	r2,r23,1
   431e0:	103eee1e 	bne	r2,zero,42d9c <___vfprintf_internal_r+0xf18>
   431e4:	00800044 	movi	r2,1
   431e8:	80800115 	stw	r2,4(r16)
   431ec:	85800015 	stw	r22,0(r16)
   431f0:	dc401e15 	stw	r17,120(sp)
   431f4:	dd401d15 	stw	r21,116(sp)
   431f8:	a8800210 	cmplti	r2,r21,8
   431fc:	103f0f1e 	bne	r2,zero,42e3c <___vfprintf_internal_r+0xfb8>
   43200:	d9400417 	ldw	r5,16(sp)
   43204:	d9000517 	ldw	r4,20(sp)
   43208:	d9801c04 	addi	r6,sp,112
   4320c:	dac00f15 	stw	r11,60(sp)
   43210:	da000815 	stw	r8,32(sp)
   43214:	00443dc0 	call	443dc <__sprint_r>
   43218:	103c251e 	bne	r2,zero,422b0 <___vfprintf_internal_r+0x42c>
   4321c:	dc401e17 	ldw	r17,120(sp)
   43220:	dd401d17 	ldw	r21,116(sp)
   43224:	dac00f17 	ldw	r11,60(sp)
   43228:	da000817 	ldw	r8,32(sp)
   4322c:	9039883a 	mov	fp,r18
   43230:	003f0206 	br	42e3c <___vfprintf_internal_r+0xfb8>
   43234:	d8800917 	ldw	r2,36(sp)
   43238:	10800090 	cmplti	r2,r2,2
   4323c:	103eff1e 	bne	r2,zero,42e3c <___vfprintf_internal_r+0xfb8>
   43240:	d8800917 	ldw	r2,36(sp)
   43244:	03000174 	movhi	r12,5
   43248:	6301aa04 	addi	r12,r12,1704
   4324c:	10800490 	cmplti	r2,r2,18
   43250:	10020e1e 	bne	r2,zero,43a8c <___vfprintf_internal_r+0x1c08>
   43254:	8809883a 	mov	r4,r17
   43258:	a805883a 	mov	r2,r21
   4325c:	e007883a 	mov	r3,fp
   43260:	982b883a 	mov	r21,r19
   43264:	a039883a 	mov	fp,r20
   43268:	05800404 	movi	r22,16
   4326c:	4027883a 	mov	r19,r8
   43270:	6023883a 	mov	r17,r12
   43274:	5829883a 	mov	r20,r11
   43278:	00000406 	br	4328c <___vfprintf_internal_r+0x1408>
   4327c:	18c00204 	addi	r3,r3,8
   43280:	843ffc04 	addi	r16,r16,-16
   43284:	81400448 	cmpgei	r5,r16,17
   43288:	2801f826 	beq	r5,zero,43a6c <___vfprintf_internal_r+0x1be8>
   4328c:	10800044 	addi	r2,r2,1
   43290:	21000404 	addi	r4,r4,16
   43294:	1c400015 	stw	r17,0(r3)
   43298:	1d800115 	stw	r22,4(r3)
   4329c:	d9001e15 	stw	r4,120(sp)
   432a0:	d8801d15 	stw	r2,116(sp)
   432a4:	11400208 	cmpgei	r5,r2,8
   432a8:	283ff426 	beq	r5,zero,4327c <___vfprintf_internal_r+0x13f8>
   432ac:	d9400417 	ldw	r5,16(sp)
   432b0:	d9000517 	ldw	r4,20(sp)
   432b4:	d9801c04 	addi	r6,sp,112
   432b8:	00443dc0 	call	443dc <__sprint_r>
   432bc:	103bfc1e 	bne	r2,zero,422b0 <___vfprintf_internal_r+0x42c>
   432c0:	d9001e17 	ldw	r4,120(sp)
   432c4:	d8801d17 	ldw	r2,116(sp)
   432c8:	9007883a 	mov	r3,r18
   432cc:	003fec06 	br	43280 <___vfprintf_internal_r+0x13fc>
   432d0:	d9400417 	ldw	r5,16(sp)
   432d4:	d9000517 	ldw	r4,20(sp)
   432d8:	d9801c04 	addi	r6,sp,112
   432dc:	dac01215 	stw	r11,72(sp)
   432e0:	da001015 	stw	r8,64(sp)
   432e4:	da400f15 	stw	r9,60(sp)
   432e8:	00443dc0 	call	443dc <__sprint_r>
   432ec:	103bf01e 	bne	r2,zero,422b0 <___vfprintf_internal_r+0x42c>
   432f0:	dc401e17 	ldw	r17,120(sp)
   432f4:	dac01217 	ldw	r11,72(sp)
   432f8:	da001017 	ldw	r8,64(sp)
   432fc:	da400f17 	ldw	r9,60(sp)
   43300:	9021883a 	mov	r16,r18
   43304:	003bce06 	br	42240 <___vfprintf_internal_r+0x3bc>
   43308:	d9400417 	ldw	r5,16(sp)
   4330c:	d9000517 	ldw	r4,20(sp)
   43310:	d9801c04 	addi	r6,sp,112
   43314:	dac00f15 	stw	r11,60(sp)
   43318:	da000815 	stw	r8,32(sp)
   4331c:	00443dc0 	call	443dc <__sprint_r>
   43320:	103be31e 	bne	r2,zero,422b0 <___vfprintf_internal_r+0x42c>
   43324:	dc401e17 	ldw	r17,120(sp)
   43328:	dac00f17 	ldw	r11,60(sp)
   4332c:	da000817 	ldw	r8,32(sp)
   43330:	9021883a 	mov	r16,r18
   43334:	003bce06 	br	42270 <___vfprintf_internal_r+0x3ec>
   43338:	b880004c 	andi	r2,r23,1
   4333c:	103bcc26 	beq	r2,zero,42270 <___vfprintf_internal_r+0x3ec>
   43340:	003dcc06 	br	42a74 <___vfprintf_internal_r+0xbf0>
   43344:	63000414 	ori	r12,r12,16
   43348:	003b1d06 	br	41fc0 <___vfprintf_internal_r+0x13c>
   4334c:	9a400007 	ldb	r9,0(r19)
   43350:	d8800715 	stw	r2,28(sp)
   43354:	003b1a06 	br	41fc0 <___vfprintf_internal_r+0x13c>
   43358:	902d883a 	mov	r22,r18
   4335c:	003c5106 	br	424a4 <___vfprintf_internal_r+0x620>
   43360:	18800017 	ldw	r2,0(r3)
   43364:	d8800a15 	stw	r2,40(sp)
   43368:	18800117 	ldw	r2,4(r3)
   4336c:	d8800b15 	stw	r2,44(sp)
   43370:	003cb506 	br	42648 <___vfprintf_internal_r+0x7c4>
   43374:	6080040c 	andi	r2,r12,16
   43378:	10008d1e 	bne	r2,zero,435b0 <___vfprintf_internal_r+0x172c>
   4337c:	6300100c 	andi	r12,r12,64
   43380:	60008b26 	beq	r12,zero,435b0 <___vfprintf_internal_r+0x172c>
   43384:	d8800717 	ldw	r2,28(sp)
   43388:	d8c00617 	ldw	r3,24(sp)
   4338c:	10800017 	ldw	r2,0(r2)
   43390:	10c0000d 	sth	r3,0(r2)
   43394:	003d9706 	br	429f4 <___vfprintf_internal_r+0xb70>
   43398:	182b883a 	mov	r21,r3
   4339c:	057f3316 	blt	zero,r21,4306c <___vfprintf_internal_r+0x11e8>
   433a0:	003f3c06 	br	43094 <___vfprintf_internal_r+0x1210>
   433a4:	b8c0004c 	andi	r3,r23,1
   433a8:	183f411e 	bne	r3,zero,430b0 <___vfprintf_internal_r+0x122c>
   433ac:	d8c00917 	ldw	r3,36(sp)
   433b0:	d9000817 	ldw	r4,32(sp)
   433b4:	1885c83a 	sub	r2,r3,r2
   433b8:	192bc83a 	sub	r21,r3,r4
   433bc:	157f5b0e 	bge	r2,r21,4312c <___vfprintf_internal_r+0x12a8>
   433c0:	102b883a 	mov	r21,r2
   433c4:	003f5906 	br	4312c <___vfprintf_internal_r+0x12a8>
   433c8:	002b883a 	mov	r21,zero
   433cc:	003f3206 	br	43098 <___vfprintf_internal_r+0x1214>
   433d0:	d9400417 	ldw	r5,16(sp)
   433d4:	d9000517 	ldw	r4,20(sp)
   433d8:	d9801c04 	addi	r6,sp,112
   433dc:	dac00f15 	stw	r11,60(sp)
   433e0:	da000815 	stw	r8,32(sp)
   433e4:	00443dc0 	call	443dc <__sprint_r>
   433e8:	103bb11e 	bne	r2,zero,422b0 <___vfprintf_internal_r+0x42c>
   433ec:	dc401e17 	ldw	r17,120(sp)
   433f0:	dac00f17 	ldw	r11,60(sp)
   433f4:	da000817 	ldw	r8,32(sp)
   433f8:	9021883a 	mov	r16,r18
   433fc:	003da906 	br	42aa4 <___vfprintf_internal_r+0xc20>
   43400:	00800174 	movhi	r2,5
   43404:	10819d04 	addi	r2,r2,1652
   43408:	d8800e15 	stw	r2,56(sp)
   4340c:	6080080c 	andi	r2,r12,32
   43410:	10007926 	beq	r2,zero,435f8 <___vfprintf_internal_r+0x1774>
   43414:	d8800717 	ldw	r2,28(sp)
   43418:	14400017 	ldw	r17,0(r2)
   4341c:	17000117 	ldw	fp,4(r2)
   43420:	10800204 	addi	r2,r2,8
   43424:	d8800715 	stw	r2,28(sp)
   43428:	6080004c 	andi	r2,r12,1
   4342c:	10007026 	beq	r2,zero,435f0 <___vfprintf_internal_r+0x176c>
   43430:	8f04b03a 	or	r2,r17,fp
   43434:	10006e26 	beq	r2,zero,435f0 <___vfprintf_internal_r+0x176c>
   43438:	00800c04 	movi	r2,48
   4343c:	d8801585 	stb	r2,86(sp)
   43440:	da4015c5 	stb	r9,87(sp)
   43444:	63000094 	ori	r12,r12,2
   43448:	00800084 	movi	r2,2
   4344c:	003bf206 	br	42418 <___vfprintf_internal_r+0x594>
   43450:	00800174 	movhi	r2,5
   43454:	1081a204 	addi	r2,r2,1672
   43458:	d8800e15 	stw	r2,56(sp)
   4345c:	003feb06 	br	4340c <___vfprintf_internal_r+0x1588>
   43460:	a88001f0 	cmpltui	r2,r21,7
   43464:	a839883a 	mov	fp,r21
   43468:	1001b926 	beq	r2,zero,43b50 <___vfprintf_internal_r+0x1ccc>
   4346c:	05800174 	movhi	r22,5
   43470:	e017883a 	mov	r11,fp
   43474:	ddc00715 	stw	r23,28(sp)
   43478:	b581a704 	addi	r22,r22,1692
   4347c:	003b4606 	br	42198 <___vfprintf_internal_r+0x314>
   43480:	03000174 	movhi	r12,5
   43484:	a8c00450 	cmplti	r3,r21,17
   43488:	d8801d17 	ldw	r2,116(sp)
   4348c:	6301aa04 	addi	r12,r12,1704
   43490:	1801901e 	bne	r3,zero,43ad4 <___vfprintf_internal_r+0x1c50>
   43494:	8007883a 	mov	r3,r16
   43498:	8809883a 	mov	r4,r17
   4349c:	a821883a 	mov	r16,r21
   434a0:	07000404 	movi	fp,16
   434a4:	a02b883a 	mov	r21,r20
   434a8:	da000f15 	stw	r8,60(sp)
   434ac:	9829883a 	mov	r20,r19
   434b0:	6023883a 	mov	r17,r12
   434b4:	5827883a 	mov	r19,r11
   434b8:	00000406 	br	434cc <___vfprintf_internal_r+0x1648>
   434bc:	18c00204 	addi	r3,r3,8
   434c0:	843ffc04 	addi	r16,r16,-16
   434c4:	81400448 	cmpgei	r5,r16,17
   434c8:	28017a26 	beq	r5,zero,43ab4 <___vfprintf_internal_r+0x1c30>
   434cc:	10800044 	addi	r2,r2,1
   434d0:	21000404 	addi	r4,r4,16
   434d4:	1c400015 	stw	r17,0(r3)
   434d8:	1f000115 	stw	fp,4(r3)
   434dc:	d9001e15 	stw	r4,120(sp)
   434e0:	d8801d15 	stw	r2,116(sp)
   434e4:	11400208 	cmpgei	r5,r2,8
   434e8:	283ff426 	beq	r5,zero,434bc <___vfprintf_internal_r+0x1638>
   434ec:	d9400417 	ldw	r5,16(sp)
   434f0:	d9000517 	ldw	r4,20(sp)
   434f4:	d9801c04 	addi	r6,sp,112
   434f8:	00443dc0 	call	443dc <__sprint_r>
   434fc:	103b6c1e 	bne	r2,zero,422b0 <___vfprintf_internal_r+0x42c>
   43500:	d9001e17 	ldw	r4,120(sp)
   43504:	d8801d17 	ldw	r2,116(sp)
   43508:	9007883a 	mov	r3,r18
   4350c:	003fec06 	br	434c0 <___vfprintf_internal_r+0x163c>
   43510:	dc001015 	stw	r16,64(sp)
   43514:	982d883a 	mov	r22,r19
   43518:	482f883a 	mov	r23,r9
   4351c:	e027883a 	mov	r19,fp
   43520:	db000815 	stw	r12,32(sp)
   43524:	a039883a 	mov	fp,r20
   43528:	da000f15 	stw	r8,60(sp)
   4352c:	9021883a 	mov	r16,r18
   43530:	2029883a 	mov	r20,r4
   43534:	8809883a 	mov	r4,r17
   43538:	980b883a 	mov	r5,r19
   4353c:	01800284 	movi	r6,10
   43540:	000f883a 	mov	r7,zero
   43544:	004c43c0 	call	4c43c <__umoddi3>
   43548:	10800c04 	addi	r2,r2,48
   4354c:	8809883a 	mov	r4,r17
   43550:	980b883a 	mov	r5,r19
   43554:	01800284 	movi	r6,10
   43558:	000f883a 	mov	r7,zero
   4355c:	80bfffc5 	stb	r2,-1(r16)
   43560:	004be640 	call	4be64 <__udivdi3>
   43564:	980d883a 	mov	r6,r19
   43568:	880f883a 	mov	r7,r17
   4356c:	843fffc4 	addi	r16,r16,-1
   43570:	1023883a 	mov	r17,r2
   43574:	1827883a 	mov	r19,r3
   43578:	303fee1e 	bne	r6,zero,43534 <___vfprintf_internal_r+0x16b0>
   4357c:	39c002a8 	cmpgeui	r7,r7,10
   43580:	383fec1e 	bne	r7,zero,43534 <___vfprintf_internal_r+0x16b0>
   43584:	db000817 	ldw	r12,32(sp)
   43588:	b027883a 	mov	r19,r22
   4358c:	802d883a 	mov	r22,r16
   43590:	b813883a 	mov	r9,r23
   43594:	a009883a 	mov	r4,r20
   43598:	da000f17 	ldw	r8,60(sp)
   4359c:	e029883a 	mov	r20,fp
   435a0:	dc001017 	ldw	r16,64(sp)
   435a4:	95b9c83a 	sub	fp,r18,r22
   435a8:	602f883a 	mov	r23,r12
   435ac:	003bbd06 	br	424a4 <___vfprintf_internal_r+0x620>
   435b0:	d8800717 	ldw	r2,28(sp)
   435b4:	d8c00617 	ldw	r3,24(sp)
   435b8:	10800017 	ldw	r2,0(r2)
   435bc:	10c00015 	stw	r3,0(r2)
   435c0:	003d0c06 	br	429f4 <___vfprintf_internal_r+0xb70>
   435c4:	b009883a 	mov	r4,r22
   435c8:	0046c200 	call	46c20 <strlen>
   435cc:	d9001543 	ldbu	r4,85(sp)
   435d0:	da400717 	ldw	r9,28(sp)
   435d4:	db000817 	ldw	r12,32(sp)
   435d8:	da000f17 	ldw	r8,60(sp)
   435dc:	1039883a 	mov	fp,r2
   435e0:	1017883a 	mov	r11,r2
   435e4:	103ce50e 	bge	r2,zero,4297c <___vfprintf_internal_r+0xaf8>
   435e8:	0017883a 	mov	r11,zero
   435ec:	003ce306 	br	4297c <___vfprintf_internal_r+0xaf8>
   435f0:	00800084 	movi	r2,2
   435f4:	003b8806 	br	42418 <___vfprintf_internal_r+0x594>
   435f8:	d8c00717 	ldw	r3,28(sp)
   435fc:	6080040c 	andi	r2,r12,16
   43600:	1c400017 	ldw	r17,0(r3)
   43604:	1dc00104 	addi	r23,r3,4
   43608:	1000061e 	bne	r2,zero,43624 <___vfprintf_internal_r+0x17a0>
   4360c:	6080100c 	andi	r2,r12,64
   43610:	10000426 	beq	r2,zero,43624 <___vfprintf_internal_r+0x17a0>
   43614:	8c7fffcc 	andi	r17,r17,65535
   43618:	0039883a 	mov	fp,zero
   4361c:	ddc00715 	stw	r23,28(sp)
   43620:	003f8106 	br	43428 <___vfprintf_internal_r+0x15a4>
   43624:	0039883a 	mov	fp,zero
   43628:	ddc00715 	stw	r23,28(sp)
   4362c:	003f7e06 	br	43428 <___vfprintf_internal_r+0x15a4>
   43630:	d9400417 	ldw	r5,16(sp)
   43634:	d9000517 	ldw	r4,20(sp)
   43638:	d9801c04 	addi	r6,sp,112
   4363c:	dac00f15 	stw	r11,60(sp)
   43640:	da000815 	stw	r8,32(sp)
   43644:	00443dc0 	call	443dc <__sprint_r>
   43648:	103b191e 	bne	r2,zero,422b0 <___vfprintf_internal_r+0x42c>
   4364c:	dc401e17 	ldw	r17,120(sp)
   43650:	dd401d17 	ldw	r21,116(sp)
   43654:	dac00f17 	ldw	r11,60(sp)
   43658:	da000817 	ldw	r8,32(sp)
   4365c:	9039883a 	mov	fp,r18
   43660:	003dd506 	br	42db8 <___vfprintf_internal_r+0xf34>
   43664:	d9400417 	ldw	r5,16(sp)
   43668:	d9000517 	ldw	r4,20(sp)
   4366c:	d9801c04 	addi	r6,sp,112
   43670:	dac00f15 	stw	r11,60(sp)
   43674:	da000815 	stw	r8,32(sp)
   43678:	00443dc0 	call	443dc <__sprint_r>
   4367c:	103b0c1e 	bne	r2,zero,422b0 <___vfprintf_internal_r+0x42c>
   43680:	dc401e17 	ldw	r17,120(sp)
   43684:	dd401d17 	ldw	r21,116(sp)
   43688:	dac00f17 	ldw	r11,60(sp)
   4368c:	da000817 	ldw	r8,32(sp)
   43690:	9039883a 	mov	fp,r18
   43694:	003dd306 	br	42de4 <___vfprintf_internal_r+0xf60>
   43698:	d8801d17 	ldw	r2,116(sp)
   4369c:	00c00174 	movhi	r3,5
   436a0:	18c1a904 	addi	r3,r3,1700
   436a4:	10800044 	addi	r2,r2,1
   436a8:	8c400044 	addi	r17,r17,1
   436ac:	80c00015 	stw	r3,0(r16)
   436b0:	00c00044 	movi	r3,1
   436b4:	d8801d15 	stw	r2,116(sp)
   436b8:	80c00115 	stw	r3,4(r16)
   436bc:	dc401e15 	stw	r17,120(sp)
   436c0:	10800208 	cmpgei	r2,r2,8
   436c4:	1001151e 	bne	r2,zero,43b1c <___vfprintf_internal_r+0x1c98>
   436c8:	84000204 	addi	r16,r16,8
   436cc:	a800b91e 	bne	r21,zero,439b4 <___vfprintf_internal_r+0x1b30>
   436d0:	d8c00917 	ldw	r3,36(sp)
   436d4:	b880004c 	andi	r2,r23,1
   436d8:	10c4b03a 	or	r2,r2,r3
   436dc:	103ae426 	beq	r2,zero,42270 <___vfprintf_internal_r+0x3ec>
   436e0:	d8800d17 	ldw	r2,52(sp)
   436e4:	d8c00c17 	ldw	r3,48(sp)
   436e8:	80800015 	stw	r2,0(r16)
   436ec:	d8801d17 	ldw	r2,116(sp)
   436f0:	1c63883a 	add	r17,r3,r17
   436f4:	80c00115 	stw	r3,4(r16)
   436f8:	10800044 	addi	r2,r2,1
   436fc:	dc401e15 	stw	r17,120(sp)
   43700:	d8801d15 	stw	r2,116(sp)
   43704:	10c00208 	cmpgei	r3,r2,8
   43708:	1801181e 	bne	r3,zero,43b6c <___vfprintf_internal_r+0x1ce8>
   4370c:	84000204 	addi	r16,r16,8
   43710:	d8c00917 	ldw	r3,36(sp)
   43714:	10800044 	addi	r2,r2,1
   43718:	d8801d15 	stw	r2,116(sp)
   4371c:	1c63883a 	add	r17,r3,r17
   43720:	85800015 	stw	r22,0(r16)
   43724:	80c00115 	stw	r3,4(r16)
   43728:	dc401e15 	stw	r17,120(sp)
   4372c:	10800208 	cmpgei	r2,r2,8
   43730:	103ace26 	beq	r2,zero,4226c <___vfprintf_internal_r+0x3e8>
   43734:	003e1806 	br	42f98 <___vfprintf_internal_r+0x1114>
   43738:	d9400417 	ldw	r5,16(sp)
   4373c:	d9000517 	ldw	r4,20(sp)
   43740:	d9801c04 	addi	r6,sp,112
   43744:	dac01415 	stw	r11,80(sp)
   43748:	da001315 	stw	r8,76(sp)
   4374c:	da401215 	stw	r9,72(sp)
   43750:	db401015 	stw	r13,64(sp)
   43754:	db800f15 	stw	r14,60(sp)
   43758:	00443dc0 	call	443dc <__sprint_r>
   4375c:	103ad41e 	bne	r2,zero,422b0 <___vfprintf_internal_r+0x42c>
   43760:	dc401e17 	ldw	r17,120(sp)
   43764:	dac01417 	ldw	r11,80(sp)
   43768:	da001317 	ldw	r8,76(sp)
   4376c:	da401217 	ldw	r9,72(sp)
   43770:	db401017 	ldw	r13,64(sp)
   43774:	db800f17 	ldw	r14,60(sp)
   43778:	9021883a 	mov	r16,r18
   4377c:	003a9106 	br	421c4 <___vfprintf_internal_r+0x340>
   43780:	d9000a17 	ldw	r4,40(sp)
   43784:	d9400b17 	ldw	r5,44(sp)
   43788:	da000f15 	stw	r8,60(sp)
   4378c:	200d883a 	mov	r6,r4
   43790:	280f883a 	mov	r7,r5
   43794:	db000815 	stw	r12,32(sp)
   43798:	da400715 	stw	r9,28(sp)
   4379c:	004ddc40 	call	4ddc4 <__unorddf2>
   437a0:	da400717 	ldw	r9,28(sp)
   437a4:	db000817 	ldw	r12,32(sp)
   437a8:	da000f17 	ldw	r8,60(sp)
   437ac:	1002421e 	bne	r2,zero,440b8 <___vfprintf_internal_r+0x2234>
   437b0:	00fff7c4 	movi	r3,-33
   437b4:	48c6703a 	and	r3,r9,r3
   437b8:	a8bfffe0 	cmpeqi	r2,r21,-1
   437bc:	d8c00815 	stw	r3,32(sp)
   437c0:	1001ca1e 	bne	r2,zero,43eec <___vfprintf_internal_r+0x2068>
   437c4:	188011d8 	cmpnei	r2,r3,71
   437c8:	1001b826 	beq	r2,zero,43eac <___vfprintf_internal_r+0x2028>
   437cc:	d8800b17 	ldw	r2,44(sp)
   437d0:	65c04014 	ori	r23,r12,256
   437d4:	1000cd16 	blt	r2,zero,43b0c <___vfprintf_internal_r+0x1c88>
   437d8:	dc400b17 	ldw	r17,44(sp)
   437dc:	d8000705 	stb	zero,28(sp)
   437e0:	488019a0 	cmpeqi	r2,r9,102
   437e4:	d8800f15 	stw	r2,60(sp)
   437e8:	1001721e 	bne	r2,zero,43db4 <___vfprintf_internal_r+0x1f30>
   437ec:	d8800817 	ldw	r2,32(sp)
   437f0:	10801158 	cmpnei	r2,r2,69
   437f4:	1000ec26 	beq	r2,zero,43ba8 <___vfprintf_internal_r+0x1d24>
   437f8:	d8801a04 	addi	r2,sp,104
   437fc:	d8800315 	stw	r2,12(sp)
   43800:	d9400a17 	ldw	r5,40(sp)
   43804:	d8801704 	addi	r2,sp,92
   43808:	d9000517 	ldw	r4,20(sp)
   4380c:	d8800215 	stw	r2,8(sp)
   43810:	d8801604 	addi	r2,sp,88
   43814:	d8800115 	stw	r2,4(sp)
   43818:	dd400015 	stw	r21,0(sp)
   4381c:	01c00084 	movi	r7,2
   43820:	880d883a 	mov	r6,r17
   43824:	da001315 	stw	r8,76(sp)
   43828:	db001215 	stw	r12,72(sp)
   4382c:	da400915 	stw	r9,36(sp)
   43830:	00472400 	call	47240 <_dtoa_r>
   43834:	da400917 	ldw	r9,36(sp)
   43838:	db001217 	ldw	r12,72(sp)
   4383c:	da001317 	ldw	r8,76(sp)
   43840:	48c019e0 	cmpeqi	r3,r9,103
   43844:	102d883a 	mov	r22,r2
   43848:	1800ff26 	beq	r3,zero,43c48 <___vfprintf_internal_r+0x1dc4>
   4384c:	6080004c 	andi	r2,r12,1
   43850:	1000ff26 	beq	r2,zero,43c50 <___vfprintf_internal_r+0x1dcc>
   43854:	b579883a 	add	fp,r22,r21
   43858:	d9000a17 	ldw	r4,40(sp)
   4385c:	000d883a 	mov	r6,zero
   43860:	000f883a 	mov	r7,zero
   43864:	880b883a 	mov	r5,r17
   43868:	da001315 	stw	r8,76(sp)
   4386c:	db001215 	stw	r12,72(sp)
   43870:	da400915 	stw	r9,36(sp)
   43874:	004c9980 	call	4c998 <__eqdf2>
   43878:	da400917 	ldw	r9,36(sp)
   4387c:	db001217 	ldw	r12,72(sp)
   43880:	da001317 	ldw	r8,76(sp)
   43884:	10023126 	beq	r2,zero,4414c <___vfprintf_internal_r+0x22c8>
   43888:	d8801a17 	ldw	r2,104(sp)
   4388c:	1700062e 	bgeu	r2,fp,438a8 <___vfprintf_internal_r+0x1a24>
   43890:	01000c04 	movi	r4,48
   43894:	10c00044 	addi	r3,r2,1
   43898:	d8c01a15 	stw	r3,104(sp)
   4389c:	11000005 	stb	r4,0(r2)
   438a0:	d8801a17 	ldw	r2,104(sp)
   438a4:	173ffb36 	bltu	r2,fp,43894 <___vfprintf_internal_r+0x1a10>
   438a8:	d8c00817 	ldw	r3,32(sp)
   438ac:	d9c01617 	ldw	r7,88(sp)
   438b0:	1585c83a 	sub	r2,r2,r22
   438b4:	18c011d8 	cmpnei	r3,r3,71
   438b8:	d8800915 	stw	r2,36(sp)
   438bc:	d9c00815 	stw	r7,32(sp)
   438c0:	1800e726 	beq	r3,zero,43c60 <___vfprintf_internal_r+0x1ddc>
   438c4:	d8800f17 	ldw	r2,60(sp)
   438c8:	10021a26 	beq	r2,zero,44134 <___vfprintf_internal_r+0x22b0>
   438cc:	d8c00817 	ldw	r3,32(sp)
   438d0:	6080004c 	andi	r2,r12,1
   438d4:	1544b03a 	or	r2,r2,r21
   438d8:	00c23a0e 	bge	zero,r3,441c4 <___vfprintf_internal_r+0x2340>
   438dc:	10021f1e 	bne	r2,zero,4415c <___vfprintf_internal_r+0x22d8>
   438e0:	df000817 	ldw	fp,32(sp)
   438e4:	e017883a 	mov	r11,fp
   438e8:	02401984 	movi	r9,102
   438ec:	d8800707 	ldb	r2,28(sp)
   438f0:	10012b26 	beq	r2,zero,43da0 <___vfprintf_internal_r+0x1f1c>
   438f4:	00800b44 	movi	r2,45
   438f8:	d8801545 	stb	r2,85(sp)
   438fc:	d8801017 	ldw	r2,64(sp)
   43900:	002b883a 	mov	r21,zero
   43904:	d8800715 	stw	r2,28(sp)
   43908:	003aee06 	br	424c4 <___vfprintf_internal_r+0x640>
   4390c:	d9400417 	ldw	r5,16(sp)
   43910:	d9000517 	ldw	r4,20(sp)
   43914:	d9801c04 	addi	r6,sp,112
   43918:	dac00f15 	stw	r11,60(sp)
   4391c:	da000815 	stw	r8,32(sp)
   43920:	00443dc0 	call	443dc <__sprint_r>
   43924:	103a621e 	bne	r2,zero,422b0 <___vfprintf_internal_r+0x42c>
   43928:	dc401e17 	ldw	r17,120(sp)
   4392c:	dac00f17 	ldw	r11,60(sp)
   43930:	da000817 	ldw	r8,32(sp)
   43934:	9021883a 	mov	r16,r18
   43938:	003c4b06 	br	42a68 <___vfprintf_internal_r+0xbe4>
   4393c:	d9400417 	ldw	r5,16(sp)
   43940:	d9000517 	ldw	r4,20(sp)
   43944:	d9801c04 	addi	r6,sp,112
   43948:	dac00f15 	stw	r11,60(sp)
   4394c:	da000815 	stw	r8,32(sp)
   43950:	00443dc0 	call	443dc <__sprint_r>
   43954:	103a561e 	bne	r2,zero,422b0 <___vfprintf_internal_r+0x42c>
   43958:	dc401e17 	ldw	r17,120(sp)
   4395c:	dd401d17 	ldw	r21,116(sp)
   43960:	da000817 	ldw	r8,32(sp)
   43964:	dac00f17 	ldw	r11,60(sp)
   43968:	9039883a 	mov	fp,r18
   4396c:	003d3306 	br	42e3c <___vfprintf_internal_r+0xfb8>
   43970:	d9000517 	ldw	r4,20(sp)
   43974:	0045d900 	call	45d90 <__sinit>
   43978:	00395b06 	br	41ee8 <___vfprintf_internal_r+0x64>
   4397c:	d9400417 	ldw	r5,16(sp)
   43980:	d9000517 	ldw	r4,20(sp)
   43984:	d9801c04 	addi	r6,sp,112
   43988:	dac01215 	stw	r11,72(sp)
   4398c:	da001015 	stw	r8,64(sp)
   43990:	da400f15 	stw	r9,60(sp)
   43994:	00443dc0 	call	443dc <__sprint_r>
   43998:	103a451e 	bne	r2,zero,422b0 <___vfprintf_internal_r+0x42c>
   4399c:	dc401e17 	ldw	r17,120(sp)
   439a0:	dac01217 	ldw	r11,72(sp)
   439a4:	da001017 	ldw	r8,64(sp)
   439a8:	da400f17 	ldw	r9,60(sp)
   439ac:	9021883a 	mov	r16,r18
   439b0:	003a2106 	br	42238 <___vfprintf_internal_r+0x3b4>
   439b4:	d8800d17 	ldw	r2,52(sp)
   439b8:	d8c00c17 	ldw	r3,48(sp)
   439bc:	80800015 	stw	r2,0(r16)
   439c0:	d8801d17 	ldw	r2,116(sp)
   439c4:	1c63883a 	add	r17,r3,r17
   439c8:	80c00115 	stw	r3,4(r16)
   439cc:	10800044 	addi	r2,r2,1
   439d0:	dc401e15 	stw	r17,120(sp)
   439d4:	d8801d15 	stw	r2,116(sp)
   439d8:	10c00208 	cmpgei	r3,r2,8
   439dc:	1800631e 	bne	r3,zero,43b6c <___vfprintf_internal_r+0x1ce8>
   439e0:	84000204 	addi	r16,r16,8
   439e4:	a83f4a0e 	bge	r21,zero,43710 <___vfprintf_internal_r+0x188c>
   439e8:	03000174 	movhi	r12,5
   439ec:	a8fffc08 	cmpgei	r3,r21,-16
   439f0:	6301aa04 	addi	r12,r12,1704
   439f4:	056bc83a 	sub	r21,zero,r21
   439f8:	1801881e 	bne	r3,zero,4401c <___vfprintf_internal_r+0x2198>
   439fc:	8007883a 	mov	r3,r16
   43a00:	8809883a 	mov	r4,r17
   43a04:	07000404 	movi	fp,16
   43a08:	da000815 	stw	r8,32(sp)
   43a0c:	5823883a 	mov	r17,r11
   43a10:	6021883a 	mov	r16,r12
   43a14:	00000406 	br	43a28 <___vfprintf_internal_r+0x1ba4>
   43a18:	18c00204 	addi	r3,r3,8
   43a1c:	ad7ffc04 	addi	r21,r21,-16
   43a20:	a9400448 	cmpgei	r5,r21,17
   43a24:	28017826 	beq	r5,zero,44008 <___vfprintf_internal_r+0x2184>
   43a28:	10800044 	addi	r2,r2,1
   43a2c:	21000404 	addi	r4,r4,16
   43a30:	1c000015 	stw	r16,0(r3)
   43a34:	1f000115 	stw	fp,4(r3)
   43a38:	d9001e15 	stw	r4,120(sp)
   43a3c:	d8801d15 	stw	r2,116(sp)
   43a40:	11400208 	cmpgei	r5,r2,8
   43a44:	283ff426 	beq	r5,zero,43a18 <___vfprintf_internal_r+0x1b94>
   43a48:	d9400417 	ldw	r5,16(sp)
   43a4c:	d9000517 	ldw	r4,20(sp)
   43a50:	d9801c04 	addi	r6,sp,112
   43a54:	00443dc0 	call	443dc <__sprint_r>
   43a58:	103a151e 	bne	r2,zero,422b0 <___vfprintf_internal_r+0x42c>
   43a5c:	d9001e17 	ldw	r4,120(sp)
   43a60:	d8801d17 	ldw	r2,116(sp)
   43a64:	9007883a 	mov	r3,r18
   43a68:	003fec06 	br	43a1c <___vfprintf_internal_r+0x1b98>
   43a6c:	9811883a 	mov	r8,r19
   43a70:	a017883a 	mov	r11,r20
   43a74:	a827883a 	mov	r19,r21
   43a78:	8819883a 	mov	r12,r17
   43a7c:	e029883a 	mov	r20,fp
   43a80:	102b883a 	mov	r21,r2
   43a84:	2023883a 	mov	r17,r4
   43a88:	1839883a 	mov	fp,r3
   43a8c:	ad400044 	addi	r21,r21,1
   43a90:	8c23883a 	add	r17,r17,r16
   43a94:	e3000015 	stw	r12,0(fp)
   43a98:	003ce206 	br	42e24 <___vfprintf_internal_r+0xfa0>
   43a9c:	05800174 	movhi	r22,5
   43aa0:	b5819904 	addi	r22,r22,1636
   43aa4:	003b1206 	br	426f0 <___vfprintf_internal_r+0x86c>
   43aa8:	03000174 	movhi	r12,5
   43aac:	6301aa04 	addi	r12,r12,1704
   43ab0:	003c8c06 	br	42ce4 <___vfprintf_internal_r+0xe60>
   43ab4:	da000f17 	ldw	r8,60(sp)
   43ab8:	9817883a 	mov	r11,r19
   43abc:	8819883a 	mov	r12,r17
   43ac0:	a027883a 	mov	r19,r20
   43ac4:	2023883a 	mov	r17,r4
   43ac8:	a829883a 	mov	r20,r21
   43acc:	802b883a 	mov	r21,r16
   43ad0:	1821883a 	mov	r16,r3
   43ad4:	10800044 	addi	r2,r2,1
   43ad8:	8d63883a 	add	r17,r17,r21
   43adc:	d8801d15 	stw	r2,116(sp)
   43ae0:	83000015 	stw	r12,0(r16)
   43ae4:	85400115 	stw	r21,4(r16)
   43ae8:	dc401e15 	stw	r17,120(sp)
   43aec:	10800208 	cmpgei	r2,r2,8
   43af0:	1000491e 	bne	r2,zero,43c18 <___vfprintf_internal_r+0x1d94>
   43af4:	84000204 	addi	r16,r16,8
   43af8:	003d6a06 	br	430a4 <___vfprintf_internal_r+0x1220>
   43afc:	00800b44 	movi	r2,45
   43b00:	d8801545 	stb	r2,85(sp)
   43b04:	01000b44 	movi	r4,45
   43b08:	003af506 	br	426e0 <___vfprintf_internal_r+0x85c>
   43b0c:	1460003c 	xorhi	r17,r2,32768
   43b10:	00800b44 	movi	r2,45
   43b14:	d8800705 	stb	r2,28(sp)
   43b18:	003f3106 	br	437e0 <___vfprintf_internal_r+0x195c>
   43b1c:	d9400417 	ldw	r5,16(sp)
   43b20:	d9000517 	ldw	r4,20(sp)
   43b24:	d9801c04 	addi	r6,sp,112
   43b28:	dac00f15 	stw	r11,60(sp)
   43b2c:	da000815 	stw	r8,32(sp)
   43b30:	00443dc0 	call	443dc <__sprint_r>
   43b34:	1039de1e 	bne	r2,zero,422b0 <___vfprintf_internal_r+0x42c>
   43b38:	dd401617 	ldw	r21,88(sp)
   43b3c:	dc401e17 	ldw	r17,120(sp)
   43b40:	dac00f17 	ldw	r11,60(sp)
   43b44:	da000817 	ldw	r8,32(sp)
   43b48:	9021883a 	mov	r16,r18
   43b4c:	003edf06 	br	436cc <___vfprintf_internal_r+0x1848>
   43b50:	07000184 	movi	fp,6
   43b54:	003e4506 	br	4346c <___vfprintf_internal_r+0x15e8>
   43b58:	d9400417 	ldw	r5,16(sp)
   43b5c:	d9000517 	ldw	r4,20(sp)
   43b60:	d9801c04 	addi	r6,sp,112
   43b64:	00443dc0 	call	443dc <__sprint_r>
   43b68:	0039d106 	br	422b0 <___vfprintf_internal_r+0x42c>
   43b6c:	d9400417 	ldw	r5,16(sp)
   43b70:	d9000517 	ldw	r4,20(sp)
   43b74:	d9801c04 	addi	r6,sp,112
   43b78:	dac00f15 	stw	r11,60(sp)
   43b7c:	da000815 	stw	r8,32(sp)
   43b80:	00443dc0 	call	443dc <__sprint_r>
   43b84:	1039ca1e 	bne	r2,zero,422b0 <___vfprintf_internal_r+0x42c>
   43b88:	dd401617 	ldw	r21,88(sp)
   43b8c:	dc401e17 	ldw	r17,120(sp)
   43b90:	d8801d17 	ldw	r2,116(sp)
   43b94:	dac00f17 	ldw	r11,60(sp)
   43b98:	da000817 	ldw	r8,32(sp)
   43b9c:	9021883a 	mov	r16,r18
   43ba0:	a83edb0e 	bge	r21,zero,43710 <___vfprintf_internal_r+0x188c>
   43ba4:	003f9006 	br	439e8 <___vfprintf_internal_r+0x1b64>
   43ba8:	d8801a04 	addi	r2,sp,104
   43bac:	d8800315 	stw	r2,12(sp)
   43bb0:	d9400a17 	ldw	r5,40(sp)
   43bb4:	d8801704 	addi	r2,sp,92
   43bb8:	d9000517 	ldw	r4,20(sp)
   43bbc:	a8c00044 	addi	r3,r21,1
   43bc0:	d8800215 	stw	r2,8(sp)
   43bc4:	d8801604 	addi	r2,sp,88
   43bc8:	d8800115 	stw	r2,4(sp)
   43bcc:	d8c00015 	stw	r3,0(sp)
   43bd0:	01c00084 	movi	r7,2
   43bd4:	880d883a 	mov	r6,r17
   43bd8:	da001415 	stw	r8,80(sp)
   43bdc:	db001315 	stw	r12,76(sp)
   43be0:	da401215 	stw	r9,72(sp)
   43be4:	d8c00915 	stw	r3,36(sp)
   43be8:	00472400 	call	47240 <_dtoa_r>
   43bec:	da401217 	ldw	r9,72(sp)
   43bf0:	db001317 	ldw	r12,76(sp)
   43bf4:	da001417 	ldw	r8,80(sp)
   43bf8:	102d883a 	mov	r22,r2
   43bfc:	488011d8 	cmpnei	r2,r9,71
   43c00:	10013c1e 	bne	r2,zero,440f4 <___vfprintf_internal_r+0x2270>
   43c04:	6080004c 	andi	r2,r12,1
   43c08:	10001126 	beq	r2,zero,43c50 <___vfprintf_internal_r+0x1dcc>
   43c0c:	d8800917 	ldw	r2,36(sp)
   43c10:	b0b9883a 	add	fp,r22,r2
   43c14:	003f1006 	br	43858 <___vfprintf_internal_r+0x19d4>
   43c18:	d9400417 	ldw	r5,16(sp)
   43c1c:	d9000517 	ldw	r4,20(sp)
   43c20:	d9801c04 	addi	r6,sp,112
   43c24:	dac01015 	stw	r11,64(sp)
   43c28:	da000f15 	stw	r8,60(sp)
   43c2c:	00443dc0 	call	443dc <__sprint_r>
   43c30:	10399f1e 	bne	r2,zero,422b0 <___vfprintf_internal_r+0x42c>
   43c34:	dc401e17 	ldw	r17,120(sp)
   43c38:	dac01017 	ldw	r11,64(sp)
   43c3c:	da000f17 	ldw	r8,60(sp)
   43c40:	9021883a 	mov	r16,r18
   43c44:	003d1706 	br	430a4 <___vfprintf_internal_r+0x1220>
   43c48:	dd400915 	stw	r21,36(sp)
   43c4c:	003feb06 	br	43bfc <___vfprintf_internal_r+0x1d78>
   43c50:	d8801a17 	ldw	r2,104(sp)
   43c54:	d9c01617 	ldw	r7,88(sp)
   43c58:	1585c83a 	sub	r2,r2,r22
   43c5c:	d8800915 	stw	r2,36(sp)
   43c60:	38bfff48 	cmpgei	r2,r7,-3
   43c64:	d9c00815 	stw	r7,32(sp)
   43c68:	1000b11e 	bne	r2,zero,43f30 <___vfprintf_internal_r+0x20ac>
   43c6c:	4a7fff84 	addi	r9,r9,-2
   43c70:	393fffc4 	addi	r4,r7,-1
   43c74:	4805883a 	mov	r2,r9
   43c78:	00c00044 	movi	r3,1
   43c7c:	19ebc83a 	sub	r21,r3,r7
   43c80:	00c00b44 	movi	r3,45
   43c84:	18c03fcc 	andi	r3,r3,255
   43c88:	1806923a 	slli	r3,r3,8
   43c8c:	10803fcc 	andi	r2,r2,255
   43c90:	d9001615 	stw	r4,88(sp)
   43c94:	10c4b03a 	or	r2,r2,r3
   43c98:	d880180d 	sth	r2,96(sp)
   43c9c:	a8800290 	cmplti	r2,r21,10
   43ca0:	1000bc1e 	bne	r2,zero,43f94 <___vfprintf_internal_r+0x2110>
   43ca4:	df001bc4 	addi	fp,sp,111
   43ca8:	e023883a 	mov	r17,fp
   43cac:	da400815 	stw	r9,32(sp)
   43cb0:	a039883a 	mov	fp,r20
   43cb4:	db000f15 	stw	r12,60(sp)
   43cb8:	8029883a 	mov	r20,r16
   43cbc:	da001115 	stw	r8,68(sp)
   43cc0:	a821883a 	mov	r16,r21
   43cc4:	982b883a 	mov	r21,r19
   43cc8:	8009883a 	mov	r4,r16
   43ccc:	01400284 	movi	r5,10
   43cd0:	0041cc00 	call	41cc0 <__modsi3>
   43cd4:	10800c04 	addi	r2,r2,48
   43cd8:	8009883a 	mov	r4,r16
   43cdc:	88bfffc5 	stb	r2,-1(r17)
   43ce0:	01400284 	movi	r5,10
   43ce4:	0041c400 	call	41c40 <__divsi3>
   43ce8:	81401908 	cmpgei	r5,r16,100
   43cec:	8827883a 	mov	r19,r17
   43cf0:	1021883a 	mov	r16,r2
   43cf4:	8c7fffc4 	addi	r17,r17,-1
   43cf8:	283ff31e 	bne	r5,zero,43cc8 <___vfprintf_internal_r+0x1e44>
   43cfc:	e005883a 	mov	r2,fp
   43d00:	8839883a 	mov	fp,r17
   43d04:	9823883a 	mov	r17,r19
   43d08:	a827883a 	mov	r19,r21
   43d0c:	802b883a 	mov	r21,r16
   43d10:	ad400c04 	addi	r21,r21,48
   43d14:	a021883a 	mov	r16,r20
   43d18:	e57fffc5 	stb	r21,-1(fp)
   43d1c:	1029883a 	mov	r20,r2
   43d20:	d8c01bc4 	addi	r3,sp,111
   43d24:	88bfff84 	addi	r2,r17,-2
   43d28:	da400817 	ldw	r9,32(sp)
   43d2c:	db000f17 	ldw	r12,60(sp)
   43d30:	da001117 	ldw	r8,68(sp)
   43d34:	10c1312e 	bgeu	r2,r3,441fc <___vfprintf_internal_r+0x2378>
   43d38:	d8c01884 	addi	r3,sp,98
   43d3c:	11000003 	ldbu	r4,0(r2)
   43d40:	10800044 	addi	r2,r2,1
   43d44:	18c00044 	addi	r3,r3,1
   43d48:	193fffc5 	stb	r4,-1(r3)
   43d4c:	d9001bc4 	addi	r4,sp,111
   43d50:	113ffa1e 	bne	r2,r4,43d3c <___vfprintf_internal_r+0x1eb8>
   43d54:	d8801c44 	addi	r2,sp,113
   43d58:	d8c01884 	addi	r3,sp,98
   43d5c:	1445c83a 	sub	r2,r2,r17
   43d60:	1885883a 	add	r2,r3,r2
   43d64:	d8c01804 	addi	r3,sp,96
   43d68:	10c5c83a 	sub	r2,r2,r3
   43d6c:	d8801115 	stw	r2,68(sp)
   43d70:	d8c00917 	ldw	r3,36(sp)
   43d74:	d9001117 	ldw	r4,68(sp)
   43d78:	18800088 	cmpgei	r2,r3,2
   43d7c:	1939883a 	add	fp,r3,r4
   43d80:	10008b26 	beq	r2,zero,43fb0 <___vfprintf_internal_r+0x212c>
   43d84:	d8800c17 	ldw	r2,48(sp)
   43d88:	e0b9883a 	add	fp,fp,r2
   43d8c:	e017883a 	mov	r11,fp
   43d90:	e000010e 	bge	fp,zero,43d98 <___vfprintf_internal_r+0x1f14>
   43d94:	0017883a 	mov	r11,zero
   43d98:	d8000815 	stw	zero,32(sp)
   43d9c:	003ed306 	br	438ec <___vfprintf_internal_r+0x1a68>
   43da0:	d8801017 	ldw	r2,64(sp)
   43da4:	d9001543 	ldbu	r4,85(sp)
   43da8:	002b883a 	mov	r21,zero
   43dac:	d8800715 	stw	r2,28(sp)
   43db0:	0039c006 	br	424b4 <___vfprintf_internal_r+0x630>
   43db4:	d8801a04 	addi	r2,sp,104
   43db8:	d8800315 	stw	r2,12(sp)
   43dbc:	d9400a17 	ldw	r5,40(sp)
   43dc0:	d8801704 	addi	r2,sp,92
   43dc4:	d9000517 	ldw	r4,20(sp)
   43dc8:	d8800215 	stw	r2,8(sp)
   43dcc:	d8801604 	addi	r2,sp,88
   43dd0:	d8800115 	stw	r2,4(sp)
   43dd4:	dd400015 	stw	r21,0(sp)
   43dd8:	01c000c4 	movi	r7,3
   43ddc:	880d883a 	mov	r6,r17
   43de0:	da001315 	stw	r8,76(sp)
   43de4:	db001215 	stw	r12,72(sp)
   43de8:	da400915 	stw	r9,36(sp)
   43dec:	00472400 	call	47240 <_dtoa_r>
   43df0:	102d883a 	mov	r22,r2
   43df4:	10800007 	ldb	r2,0(r2)
   43df8:	da400917 	ldw	r9,36(sp)
   43dfc:	db001217 	ldw	r12,72(sp)
   43e00:	10800c20 	cmpeqi	r2,r2,48
   43e04:	da001317 	ldw	r8,76(sp)
   43e08:	10009b1e 	bne	r2,zero,44078 <___vfprintf_internal_r+0x21f4>
   43e0c:	d8801617 	ldw	r2,88(sp)
   43e10:	d9000a17 	ldw	r4,40(sp)
   43e14:	880b883a 	mov	r5,r17
   43e18:	000d883a 	mov	r6,zero
   43e1c:	000f883a 	mov	r7,zero
   43e20:	da001315 	stw	r8,76(sp)
   43e24:	db001215 	stw	r12,72(sp)
   43e28:	da400915 	stw	r9,36(sp)
   43e2c:	1563883a 	add	r17,r2,r21
   43e30:	004c9980 	call	4c998 <__eqdf2>
   43e34:	da400917 	ldw	r9,36(sp)
   43e38:	db001217 	ldw	r12,72(sp)
   43e3c:	da001317 	ldw	r8,76(sp)
   43e40:	10008b1e 	bne	r2,zero,44070 <___vfprintf_internal_r+0x21ec>
   43e44:	d8801617 	ldw	r2,88(sp)
   43e48:	dc400915 	stw	r17,36(sp)
   43e4c:	d8800815 	stw	r2,32(sp)
   43e50:	003e9e06 	br	438cc <___vfprintf_internal_r+0x1a48>
   43e54:	d9400417 	ldw	r5,16(sp)
   43e58:	d9000517 	ldw	r4,20(sp)
   43e5c:	d9801c04 	addi	r6,sp,112
   43e60:	dac01015 	stw	r11,64(sp)
   43e64:	da000f15 	stw	r8,60(sp)
   43e68:	00443dc0 	call	443dc <__sprint_r>
   43e6c:	1039101e 	bne	r2,zero,422b0 <___vfprintf_internal_r+0x42c>
   43e70:	d8801617 	ldw	r2,88(sp)
   43e74:	dc401e17 	ldw	r17,120(sp)
   43e78:	dac01017 	ldw	r11,64(sp)
   43e7c:	da000f17 	ldw	r8,60(sp)
   43e80:	9021883a 	mov	r16,r18
   43e84:	003c9606 	br	430e0 <___vfprintf_internal_r+0x125c>
   43e88:	9817883a 	mov	r11,r19
   43e8c:	8819883a 	mov	r12,r17
   43e90:	a027883a 	mov	r19,r20
   43e94:	da000817 	ldw	r8,32(sp)
   43e98:	a829883a 	mov	r20,r21
   43e9c:	2023883a 	mov	r17,r4
   43ea0:	802b883a 	mov	r21,r16
   43ea4:	1821883a 	mov	r16,r3
   43ea8:	003c3306 	br	42f78 <___vfprintf_internal_r+0x10f4>
   43eac:	a83e471e 	bne	r21,zero,437cc <___vfprintf_internal_r+0x1948>
   43eb0:	05400044 	movi	r21,1
   43eb4:	003e4506 	br	437cc <___vfprintf_internal_r+0x1948>
   43eb8:	d9400417 	ldw	r5,16(sp)
   43ebc:	d9000517 	ldw	r4,20(sp)
   43ec0:	d9801c04 	addi	r6,sp,112
   43ec4:	dac01015 	stw	r11,64(sp)
   43ec8:	da000f15 	stw	r8,60(sp)
   43ecc:	00443dc0 	call	443dc <__sprint_r>
   43ed0:	1038f71e 	bne	r2,zero,422b0 <___vfprintf_internal_r+0x42c>
   43ed4:	dc401e17 	ldw	r17,120(sp)
   43ed8:	dac01017 	ldw	r11,64(sp)
   43edc:	da000f17 	ldw	r8,60(sp)
   43ee0:	9021883a 	mov	r16,r18
   43ee4:	a83c6c0e 	bge	r21,zero,43098 <___vfprintf_internal_r+0x1214>
   43ee8:	003d3706 	br	433c8 <___vfprintf_internal_r+0x1544>
   43eec:	05400184 	movi	r21,6
   43ef0:	003e3606 	br	437cc <___vfprintf_internal_r+0x1948>
   43ef4:	d9400417 	ldw	r5,16(sp)
   43ef8:	d9000517 	ldw	r4,20(sp)
   43efc:	d9801c04 	addi	r6,sp,112
   43f00:	dac00f15 	stw	r11,60(sp)
   43f04:	da000815 	stw	r8,32(sp)
   43f08:	00443dc0 	call	443dc <__sprint_r>
   43f0c:	1038e81e 	bne	r2,zero,422b0 <___vfprintf_internal_r+0x42c>
   43f10:	d8801617 	ldw	r2,88(sp)
   43f14:	d8c00917 	ldw	r3,36(sp)
   43f18:	dc401e17 	ldw	r17,120(sp)
   43f1c:	dac00f17 	ldw	r11,60(sp)
   43f20:	da000817 	ldw	r8,32(sp)
   43f24:	9021883a 	mov	r16,r18
   43f28:	1885c83a 	sub	r2,r3,r2
   43f2c:	003c7f06 	br	4312c <___vfprintf_internal_r+0x12a8>
   43f30:	a9c0060e 	bge	r21,r7,43f4c <___vfprintf_internal_r+0x20c8>
   43f34:	4a7fff84 	addi	r9,r9,-2
   43f38:	3d7fffc4 	addi	r21,r7,-1
   43f3c:	4805883a 	mov	r2,r9
   43f40:	a809883a 	mov	r4,r21
   43f44:	00c00ac4 	movi	r3,43
   43f48:	003f4e06 	br	43c84 <___vfprintf_internal_r+0x1e00>
   43f4c:	d8c00917 	ldw	r3,36(sp)
   43f50:	38c01e16 	blt	r7,r3,43fcc <___vfprintf_internal_r+0x2148>
   43f54:	6300004c 	andi	r12,r12,1
   43f58:	60005f1e 	bne	r12,zero,440d8 <___vfprintf_internal_r+0x2254>
   43f5c:	3817883a 	mov	r11,r7
   43f60:	3800010e 	bge	r7,zero,43f68 <___vfprintf_internal_r+0x20e4>
   43f64:	0017883a 	mov	r11,zero
   43f68:	3839883a 	mov	fp,r7
   43f6c:	024019c4 	movi	r9,103
   43f70:	003e5e06 	br	438ec <___vfprintf_internal_r+0x1a68>
   43f74:	a817883a 	mov	r11,r21
   43f78:	a839883a 	mov	fp,r21
   43f7c:	ddc00715 	stw	r23,28(sp)
   43f80:	d9001543 	ldbu	r4,85(sp)
   43f84:	602f883a 	mov	r23,r12
   43f88:	002b883a 	mov	r21,zero
   43f8c:	d8000815 	stw	zero,32(sp)
   43f90:	00394806 	br	424b4 <___vfprintf_internal_r+0x630>
   43f94:	00800c04 	movi	r2,48
   43f98:	ad400c04 	addi	r21,r21,48
   43f9c:	d8801885 	stb	r2,98(sp)
   43fa0:	00800104 	movi	r2,4
   43fa4:	dd4018c5 	stb	r21,99(sp)
   43fa8:	d8801115 	stw	r2,68(sp)
   43fac:	003f7006 	br	43d70 <___vfprintf_internal_r+0x1eec>
   43fb0:	6080004c 	andi	r2,r12,1
   43fb4:	d8800815 	stw	r2,32(sp)
   43fb8:	103f721e 	bne	r2,zero,43d84 <___vfprintf_internal_r+0x1f00>
   43fbc:	e017883a 	mov	r11,fp
   43fc0:	e03e4a0e 	bge	fp,zero,438ec <___vfprintf_internal_r+0x1a68>
   43fc4:	0017883a 	mov	r11,zero
   43fc8:	003e4806 	br	438ec <___vfprintf_internal_r+0x1a68>
   43fcc:	d8800917 	ldw	r2,36(sp)
   43fd0:	d8c00c17 	ldw	r3,48(sp)
   43fd4:	10f9883a 	add	fp,r2,r3
   43fd8:	d8800817 	ldw	r2,32(sp)
   43fdc:	00800316 	blt	zero,r2,43fec <___vfprintf_internal_r+0x2168>
   43fe0:	d8800817 	ldw	r2,32(sp)
   43fe4:	e08fc83a 	sub	r7,fp,r2
   43fe8:	3f000044 	addi	fp,r7,1
   43fec:	e017883a 	mov	r11,fp
   43ff0:	e0003e16 	blt	fp,zero,440ec <___vfprintf_internal_r+0x2268>
   43ff4:	024019c4 	movi	r9,103
   43ff8:	003e3c06 	br	438ec <___vfprintf_internal_r+0x1a68>
   43ffc:	00bfffc4 	movi	r2,-1
   44000:	d8800615 	stw	r2,24(sp)
   44004:	0038ae06 	br	422c0 <___vfprintf_internal_r+0x43c>
   44008:	da000817 	ldw	r8,32(sp)
   4400c:	8817883a 	mov	r11,r17
   44010:	8019883a 	mov	r12,r16
   44014:	2023883a 	mov	r17,r4
   44018:	1821883a 	mov	r16,r3
   4401c:	10800044 	addi	r2,r2,1
   44020:	8d63883a 	add	r17,r17,r21
   44024:	83000015 	stw	r12,0(r16)
   44028:	85400115 	stw	r21,4(r16)
   4402c:	dc401e15 	stw	r17,120(sp)
   44030:	d8801d15 	stw	r2,116(sp)
   44034:	10c00208 	cmpgei	r3,r2,8
   44038:	183db426 	beq	r3,zero,4370c <___vfprintf_internal_r+0x1888>
   4403c:	d9400417 	ldw	r5,16(sp)
   44040:	d9000517 	ldw	r4,20(sp)
   44044:	d9801c04 	addi	r6,sp,112
   44048:	dac00f15 	stw	r11,60(sp)
   4404c:	da000815 	stw	r8,32(sp)
   44050:	00443dc0 	call	443dc <__sprint_r>
   44054:	1038961e 	bne	r2,zero,422b0 <___vfprintf_internal_r+0x42c>
   44058:	dc401e17 	ldw	r17,120(sp)
   4405c:	d8801d17 	ldw	r2,116(sp)
   44060:	dac00f17 	ldw	r11,60(sp)
   44064:	da000817 	ldw	r8,32(sp)
   44068:	9021883a 	mov	r16,r18
   4406c:	003da806 	br	43710 <___vfprintf_internal_r+0x188c>
   44070:	b479883a 	add	fp,r22,r17
   44074:	003e0406 	br	43888 <___vfprintf_internal_r+0x1a04>
   44078:	d9000a17 	ldw	r4,40(sp)
   4407c:	000d883a 	mov	r6,zero
   44080:	000f883a 	mov	r7,zero
   44084:	880b883a 	mov	r5,r17
   44088:	da001315 	stw	r8,76(sp)
   4408c:	db001215 	stw	r12,72(sp)
   44090:	da400915 	stw	r9,36(sp)
   44094:	004c9980 	call	4c998 <__eqdf2>
   44098:	da400917 	ldw	r9,36(sp)
   4409c:	db001217 	ldw	r12,72(sp)
   440a0:	da001317 	ldw	r8,76(sp)
   440a4:	103f5926 	beq	r2,zero,43e0c <___vfprintf_internal_r+0x1f88>
   440a8:	00800044 	movi	r2,1
   440ac:	1545c83a 	sub	r2,r2,r21
   440b0:	d8801615 	stw	r2,88(sp)
   440b4:	003f5606 	br	43e10 <___vfprintf_internal_r+0x1f8c>
   440b8:	d8800b17 	ldw	r2,44(sp)
   440bc:	10003116 	blt	r2,zero,44184 <___vfprintf_internal_r+0x2300>
   440c0:	d9001543 	ldbu	r4,85(sp)
   440c4:	48801210 	cmplti	r2,r9,72
   440c8:	10002b1e 	bne	r2,zero,44178 <___vfprintf_internal_r+0x22f4>
   440cc:	05800174 	movhi	r22,5
   440d0:	b5819c04 	addi	r22,r22,1648
   440d4:	00398606 	br	426f0 <___vfprintf_internal_r+0x86c>
   440d8:	d8800817 	ldw	r2,32(sp)
   440dc:	d8c00c17 	ldw	r3,48(sp)
   440e0:	10f9883a 	add	fp,r2,r3
   440e4:	e017883a 	mov	r11,fp
   440e8:	e03fc20e 	bge	fp,zero,43ff4 <___vfprintf_internal_r+0x2170>
   440ec:	0017883a 	mov	r11,zero
   440f0:	003fc006 	br	43ff4 <___vfprintf_internal_r+0x2170>
   440f4:	d9000a17 	ldw	r4,40(sp)
   440f8:	000d883a 	mov	r6,zero
   440fc:	000f883a 	mov	r7,zero
   44100:	880b883a 	mov	r5,r17
   44104:	da001415 	stw	r8,80(sp)
   44108:	db001315 	stw	r12,76(sp)
   4410c:	da401215 	stw	r9,72(sp)
   44110:	004c9980 	call	4c998 <__eqdf2>
   44114:	da401217 	ldw	r9,72(sp)
   44118:	db001317 	ldw	r12,76(sp)
   4411c:	da001417 	ldw	r8,80(sp)
   44120:	1000331e 	bne	r2,zero,441f0 <___vfprintf_internal_r+0x236c>
   44124:	d8800817 	ldw	r2,32(sp)
   44128:	d9c01617 	ldw	r7,88(sp)
   4412c:	108011e0 	cmpeqi	r2,r2,71
   44130:	103ecb1e 	bne	r2,zero,43c60 <___vfprintf_internal_r+0x1ddc>
   44134:	393fffc4 	addi	r4,r7,-1
   44138:	4805883a 	mov	r2,r9
   4413c:	203ece16 	blt	r4,zero,43c78 <___vfprintf_internal_r+0x1df4>
   44140:	202b883a 	mov	r21,r4
   44144:	00c00ac4 	movi	r3,43
   44148:	003ece06 	br	43c84 <___vfprintf_internal_r+0x1e00>
   4414c:	e585c83a 	sub	r2,fp,r22
   44150:	d9c01617 	ldw	r7,88(sp)
   44154:	d8800915 	stw	r2,36(sp)
   44158:	003ec106 	br	43c60 <___vfprintf_internal_r+0x1ddc>
   4415c:	d8800c17 	ldw	r2,48(sp)
   44160:	188f883a 	add	r7,r3,r2
   44164:	3d79883a 	add	fp,r7,r21
   44168:	e017883a 	mov	r11,fp
   4416c:	e03dde0e 	bge	fp,zero,438e8 <___vfprintf_internal_r+0x1a64>
   44170:	0017883a 	mov	r11,zero
   44174:	003ddc06 	br	438e8 <___vfprintf_internal_r+0x1a64>
   44178:	05800174 	movhi	r22,5
   4417c:	b5819b04 	addi	r22,r22,1644
   44180:	00395b06 	br	426f0 <___vfprintf_internal_r+0x86c>
   44184:	00800b44 	movi	r2,45
   44188:	d8801545 	stb	r2,85(sp)
   4418c:	01000b44 	movi	r4,45
   44190:	003fcc06 	br	440c4 <___vfprintf_internal_r+0x2240>
   44194:	d8c00717 	ldw	r3,28(sp)
   44198:	1d400017 	ldw	r21,0(r3)
   4419c:	18c00104 	addi	r3,r3,4
   441a0:	a800010e 	bge	r21,zero,441a8 <___vfprintf_internal_r+0x2324>
   441a4:	057fffc4 	movi	r21,-1
   441a8:	9a400043 	ldbu	r9,1(r19)
   441ac:	d8c00715 	stw	r3,28(sp)
   441b0:	1027883a 	mov	r19,r2
   441b4:	4a403fcc 	andi	r9,r9,255
   441b8:	4a40201c 	xori	r9,r9,128
   441bc:	4a7fe004 	addi	r9,r9,-128
   441c0:	00377f06 	br	41fc0 <___vfprintf_internal_r+0x13c>
   441c4:	1000041e 	bne	r2,zero,441d8 <___vfprintf_internal_r+0x2354>
   441c8:	02c00044 	movi	r11,1
   441cc:	02401984 	movi	r9,102
   441d0:	07000044 	movi	fp,1
   441d4:	003dc506 	br	438ec <___vfprintf_internal_r+0x1a68>
   441d8:	d8800c17 	ldw	r2,48(sp)
   441dc:	11c00044 	addi	r7,r2,1
   441e0:	3d79883a 	add	fp,r7,r21
   441e4:	e017883a 	mov	r11,fp
   441e8:	e03dbf0e 	bge	fp,zero,438e8 <___vfprintf_internal_r+0x1a64>
   441ec:	003fe006 	br	44170 <___vfprintf_internal_r+0x22ec>
   441f0:	d8800917 	ldw	r2,36(sp)
   441f4:	b0b9883a 	add	fp,r22,r2
   441f8:	003da306 	br	43888 <___vfprintf_internal_r+0x1a04>
   441fc:	00800084 	movi	r2,2
   44200:	d8801115 	stw	r2,68(sp)
   44204:	003eda06 	br	43d70 <___vfprintf_internal_r+0x1eec>

00044208 <__vfprintf_internal>:
   44208:	00c00174 	movhi	r3,5
   4420c:	2005883a 	mov	r2,r4
   44210:	19090f17 	ldw	r4,9276(r3)
   44214:	300f883a 	mov	r7,r6
   44218:	280d883a 	mov	r6,r5
   4421c:	100b883a 	mov	r5,r2
   44220:	0041e841 	jmpi	41e84 <___vfprintf_internal_r>

00044224 <__sbprintf>:
   44224:	28c0038b 	ldhu	r3,14(r5)
   44228:	2880030b 	ldhu	r2,12(r5)
   4422c:	2ac01917 	ldw	r11,100(r5)
   44230:	1806943a 	slli	r3,r3,16
   44234:	2a800717 	ldw	r10,28(r5)
   44238:	2a400917 	ldw	r9,36(r5)
   4423c:	defee204 	addi	sp,sp,-1144
   44240:	10bfff4c 	andi	r2,r2,65533
   44244:	10c4b03a 	or	r2,r2,r3
   44248:	da001a04 	addi	r8,sp,104
   4424c:	00c10004 	movi	r3,1024
   44250:	dc011a15 	stw	r16,1128(sp)
   44254:	2821883a 	mov	r16,r5
   44258:	d80b883a 	mov	r5,sp
   4425c:	dc811c15 	stw	r18,1136(sp)
   44260:	dc411b15 	stw	r17,1132(sp)
   44264:	dfc11d15 	stw	ra,1140(sp)
   44268:	2025883a 	mov	r18,r4
   4426c:	dac01915 	stw	r11,100(sp)
   44270:	d8800315 	stw	r2,12(sp)
   44274:	da800715 	stw	r10,28(sp)
   44278:	da400915 	stw	r9,36(sp)
   4427c:	da000015 	stw	r8,0(sp)
   44280:	da000415 	stw	r8,16(sp)
   44284:	d8c00215 	stw	r3,8(sp)
   44288:	d8c00515 	stw	r3,20(sp)
   4428c:	d8000615 	stw	zero,24(sp)
   44290:	0041e840 	call	41e84 <___vfprintf_internal_r>
   44294:	1023883a 	mov	r17,r2
   44298:	10000d0e 	bge	r2,zero,442d0 <__sbprintf+0xac>
   4429c:	d880030b 	ldhu	r2,12(sp)
   442a0:	1080100c 	andi	r2,r2,64
   442a4:	10000326 	beq	r2,zero,442b4 <__sbprintf+0x90>
   442a8:	8080030b 	ldhu	r2,12(r16)
   442ac:	10801014 	ori	r2,r2,64
   442b0:	8080030d 	sth	r2,12(r16)
   442b4:	8805883a 	mov	r2,r17
   442b8:	dfc11d17 	ldw	ra,1140(sp)
   442bc:	dc811c17 	ldw	r18,1136(sp)
   442c0:	dc411b17 	ldw	r17,1132(sp)
   442c4:	dc011a17 	ldw	r16,1128(sp)
   442c8:	dec11e04 	addi	sp,sp,1144
   442cc:	f800283a 	ret
   442d0:	d80b883a 	mov	r5,sp
   442d4:	9009883a 	mov	r4,r18
   442d8:	00459780 	call	45978 <_fflush_r>
   442dc:	103fef26 	beq	r2,zero,4429c <__sbprintf+0x78>
   442e0:	047fffc4 	movi	r17,-1
   442e4:	003fed06 	br	4429c <__sbprintf+0x78>

000442e8 <__sprint_r.part.0>:
   442e8:	28801917 	ldw	r2,100(r5)
   442ec:	defff604 	addi	sp,sp,-40
   442f0:	dcc00315 	stw	r19,12(sp)
   442f4:	dfc00915 	stw	ra,36(sp)
   442f8:	df000815 	stw	fp,32(sp)
   442fc:	ddc00715 	stw	r23,28(sp)
   44300:	dd800615 	stw	r22,24(sp)
   44304:	dd400515 	stw	r21,20(sp)
   44308:	dd000415 	stw	r20,16(sp)
   4430c:	dc800215 	stw	r18,8(sp)
   44310:	dc400115 	stw	r17,4(sp)
   44314:	dc000015 	stw	r16,0(sp)
   44318:	1088000c 	andi	r2,r2,8192
   4431c:	3027883a 	mov	r19,r6
   44320:	10002c26 	beq	r2,zero,443d4 <__sprint_r.part.0+0xec>
   44324:	30800217 	ldw	r2,8(r6)
   44328:	35000017 	ldw	r20,0(r6)
   4432c:	2821883a 	mov	r16,r5
   44330:	2023883a 	mov	r17,r4
   44334:	05bfff04 	movi	r22,-4
   44338:	10002426 	beq	r2,zero,443cc <__sprint_r.part.0+0xe4>
   4433c:	a5400117 	ldw	r21,4(r20)
   44340:	a5c00017 	ldw	r23,0(r20)
   44344:	a824d0ba 	srli	r18,r21,2
   44348:	90001b26 	beq	r18,zero,443b8 <__sprint_r.part.0+0xd0>
   4434c:	0039883a 	mov	fp,zero
   44350:	00000206 	br	4435c <__sprint_r.part.0+0x74>
   44354:	bdc00104 	addi	r23,r23,4
   44358:	97001626 	beq	r18,fp,443b4 <__sprint_r.part.0+0xcc>
   4435c:	b9400017 	ldw	r5,0(r23)
   44360:	800d883a 	mov	r6,r16
   44364:	8809883a 	mov	r4,r17
   44368:	00467200 	call	46720 <_fputwc_r>
   4436c:	10bfffe0 	cmpeqi	r2,r2,-1
   44370:	e7000044 	addi	fp,fp,1
   44374:	103ff726 	beq	r2,zero,44354 <__sprint_r.part.0+0x6c>
   44378:	00bfffc4 	movi	r2,-1
   4437c:	98000215 	stw	zero,8(r19)
   44380:	98000115 	stw	zero,4(r19)
   44384:	dfc00917 	ldw	ra,36(sp)
   44388:	df000817 	ldw	fp,32(sp)
   4438c:	ddc00717 	ldw	r23,28(sp)
   44390:	dd800617 	ldw	r22,24(sp)
   44394:	dd400517 	ldw	r21,20(sp)
   44398:	dd000417 	ldw	r20,16(sp)
   4439c:	dcc00317 	ldw	r19,12(sp)
   443a0:	dc800217 	ldw	r18,8(sp)
   443a4:	dc400117 	ldw	r17,4(sp)
   443a8:	dc000017 	ldw	r16,0(sp)
   443ac:	dec00a04 	addi	sp,sp,40
   443b0:	f800283a 	ret
   443b4:	98800217 	ldw	r2,8(r19)
   443b8:	adaa703a 	and	r21,r21,r22
   443bc:	1545c83a 	sub	r2,r2,r21
   443c0:	98800215 	stw	r2,8(r19)
   443c4:	a5000204 	addi	r20,r20,8
   443c8:	103fdc1e 	bne	r2,zero,4433c <__sprint_r.part.0+0x54>
   443cc:	0005883a 	mov	r2,zero
   443d0:	003fea06 	br	4437c <__sprint_r.part.0+0x94>
   443d4:	0045df00 	call	45df0 <__sfvwrite_r>
   443d8:	003fe806 	br	4437c <__sprint_r.part.0+0x94>

000443dc <__sprint_r>:
   443dc:	30c00217 	ldw	r3,8(r6)
   443e0:	18000126 	beq	r3,zero,443e8 <__sprint_r+0xc>
   443e4:	00442e81 	jmpi	442e8 <__sprint_r.part.0>
   443e8:	30000115 	stw	zero,4(r6)
   443ec:	0005883a 	mov	r2,zero
   443f0:	f800283a 	ret

000443f4 <___vfiprintf_internal_r>:
   443f4:	deffcf04 	addi	sp,sp,-196
   443f8:	dd002b15 	stw	r20,172(sp)
   443fc:	dc802915 	stw	r18,164(sp)
   44400:	dfc03015 	stw	ra,192(sp)
   44404:	df002f15 	stw	fp,188(sp)
   44408:	ddc02e15 	stw	r23,184(sp)
   4440c:	dd802d15 	stw	r22,180(sp)
   44410:	dd402c15 	stw	r21,176(sp)
   44414:	dcc02a15 	stw	r19,168(sp)
   44418:	dc402815 	stw	r17,160(sp)
   4441c:	dc002715 	stw	r16,156(sp)
   44420:	d9000015 	stw	r4,0(sp)
   44424:	d9c00315 	stw	r7,12(sp)
   44428:	2825883a 	mov	r18,r5
   4442c:	3029883a 	mov	r20,r6
   44430:	20000226 	beq	r4,zero,4443c <___vfiprintf_internal_r+0x48>
   44434:	20800d17 	ldw	r2,52(r4)
   44438:	10044f26 	beq	r2,zero,45578 <___vfiprintf_internal_r+0x1184>
   4443c:	9080030b 	ldhu	r2,12(r18)
   44440:	10c8000c 	andi	r3,r2,8192
   44444:	1800071e 	bne	r3,zero,44464 <___vfiprintf_internal_r+0x70>
   44448:	90c01917 	ldw	r3,100(r18)
   4444c:	11080014 	ori	r4,r2,8192
   44450:	00b7ffc4 	movi	r2,-8193
   44454:	1886703a 	and	r3,r3,r2
   44458:	9100030d 	sth	r4,12(r18)
   4445c:	2005883a 	mov	r2,r4
   44460:	90c01915 	stw	r3,100(r18)
   44464:	10c0020c 	andi	r3,r2,8
   44468:	1800ff26 	beq	r3,zero,44868 <___vfiprintf_internal_r+0x474>
   4446c:	90c00417 	ldw	r3,16(r18)
   44470:	1800fd26 	beq	r3,zero,44868 <___vfiprintf_internal_r+0x474>
   44474:	1080068c 	andi	r2,r2,26
   44478:	10800298 	cmpnei	r2,r2,10
   4447c:	10010226 	beq	r2,zero,44888 <___vfiprintf_internal_r+0x494>
   44480:	dcc01704 	addi	r19,sp,92
   44484:	05c00174 	movhi	r23,5
   44488:	dcc00a15 	stw	r19,40(sp)
   4448c:	d8000c15 	stw	zero,48(sp)
   44490:	d8000b15 	stw	zero,44(sp)
   44494:	9811883a 	mov	r8,r19
   44498:	d8000515 	stw	zero,20(sp)
   4449c:	d8000115 	stw	zero,4(sp)
   444a0:	bdc1b204 	addi	r23,r23,1736
   444a4:	a0800007 	ldb	r2,0(r20)
   444a8:	1000dd26 	beq	r2,zero,44820 <___vfiprintf_internal_r+0x42c>
   444ac:	a021883a 	mov	r16,r20
   444b0:	00000306 	br	444c0 <___vfiprintf_internal_r+0xcc>
   444b4:	80800047 	ldb	r2,1(r16)
   444b8:	84000044 	addi	r16,r16,1
   444bc:	10011a26 	beq	r2,zero,44928 <___vfiprintf_internal_r+0x534>
   444c0:	10800958 	cmpnei	r2,r2,37
   444c4:	103ffb1e 	bne	r2,zero,444b4 <___vfiprintf_internal_r+0xc0>
   444c8:	8523c83a 	sub	r17,r16,r20
   444cc:	8501181e 	bne	r16,r20,44930 <___vfiprintf_internal_r+0x53c>
   444d0:	80800003 	ldbu	r2,0(r16)
   444d4:	10803fcc 	andi	r2,r2,255
   444d8:	1080201c 	xori	r2,r2,128
   444dc:	10bfe004 	addi	r2,r2,-128
   444e0:	1000cf26 	beq	r2,zero,44820 <___vfiprintf_internal_r+0x42c>
   444e4:	80800047 	ldb	r2,1(r16)
   444e8:	85000044 	addi	r20,r16,1
   444ec:	d8000945 	stb	zero,37(sp)
   444f0:	027fffc4 	movi	r9,-1
   444f4:	0023883a 	mov	r17,zero
   444f8:	0021883a 	mov	r16,zero
   444fc:	a5000044 	addi	r20,r20,1
   44500:	10fff804 	addi	r3,r2,-32
   44504:	19001668 	cmpgeui	r4,r3,89
   44508:	20006c1e 	bne	r4,zero,446bc <___vfiprintf_internal_r+0x2c8>
   4450c:	180690ba 	slli	r3,r3,2
   44510:	01000134 	movhi	r4,4
   44514:	1909883a 	add	r4,r3,r4
   44518:	20d14817 	ldw	r3,17696(r4)
   4451c:	1800683a 	jmp	r3
   44520:	00044bbc 	xorhi	zero,zero,4398
   44524:	000446bc 	xorhi	zero,zero,4378
   44528:	000446bc 	xorhi	zero,zero,4378
   4452c:	00044bb0 	cmpltui	zero,zero,4398
   44530:	000446bc 	xorhi	zero,zero,4378
   44534:	000446bc 	xorhi	zero,zero,4378
   44538:	000446bc 	xorhi	zero,zero,4378
   4453c:	000446bc 	xorhi	zero,zero,4378
   44540:	000446bc 	xorhi	zero,zero,4378
   44544:	000446bc 	xorhi	zero,zero,4378
   44548:	00044b24 	muli	zero,zero,4396
   4454c:	00044ba0 	cmpeqi	zero,zero,4398
   44550:	000446bc 	xorhi	zero,zero,4378
   44554:	00044b3c 	xorhi	zero,zero,4396
   44558:	00044b48 	cmpgei	zero,zero,4397
   4455c:	000446bc 	xorhi	zero,zero,4378
   44560:	00044b94 	movui	zero,4398
   44564:	00044684 	movi	zero,4378
   44568:	00044684 	movi	zero,4378
   4456c:	00044684 	movi	zero,4378
   44570:	00044684 	movi	zero,4378
   44574:	00044684 	movi	zero,4378
   44578:	00044684 	movi	zero,4378
   4457c:	00044684 	movi	zero,4378
   44580:	00044684 	movi	zero,4378
   44584:	00044684 	movi	zero,4378
   44588:	000446bc 	xorhi	zero,zero,4378
   4458c:	000446bc 	xorhi	zero,zero,4378
   44590:	000446bc 	xorhi	zero,zero,4378
   44594:	000446bc 	xorhi	zero,zero,4378
   44598:	000446bc 	xorhi	zero,zero,4378
   4459c:	000446bc 	xorhi	zero,zero,4378
   445a0:	000446bc 	xorhi	zero,zero,4378
   445a4:	000446bc 	xorhi	zero,zero,4378
   445a8:	000446bc 	xorhi	zero,zero,4378
   445ac:	000446bc 	xorhi	zero,zero,4378
   445b0:	000448d0 	cmplti	zero,zero,4387
   445b4:	000446bc 	xorhi	zero,zero,4378
   445b8:	000446bc 	xorhi	zero,zero,4378
   445bc:	000446bc 	xorhi	zero,zero,4378
   445c0:	000446bc 	xorhi	zero,zero,4378
   445c4:	000446bc 	xorhi	zero,zero,4378
   445c8:	000446bc 	xorhi	zero,zero,4378
   445cc:	000446bc 	xorhi	zero,zero,4378
   445d0:	000446bc 	xorhi	zero,zero,4378
   445d4:	000446bc 	xorhi	zero,zero,4378
   445d8:	000446bc 	xorhi	zero,zero,4378
   445dc:	00044cd8 	cmpnei	zero,zero,4403
   445e0:	000446bc 	xorhi	zero,zero,4378
   445e4:	000446bc 	xorhi	zero,zero,4378
   445e8:	000446bc 	xorhi	zero,zero,4378
   445ec:	000446bc 	xorhi	zero,zero,4378
   445f0:	000446bc 	xorhi	zero,zero,4378
   445f4:	00044c74 	movhi	zero,4401
   445f8:	000446bc 	xorhi	zero,zero,4378
   445fc:	000446bc 	xorhi	zero,zero,4378
   44600:	00045468 	cmpgeui	zero,zero,4433
   44604:	000446bc 	xorhi	zero,zero,4378
   44608:	000446bc 	xorhi	zero,zero,4378
   4460c:	000446bc 	xorhi	zero,zero,4378
   44610:	000446bc 	xorhi	zero,zero,4378
   44614:	000446bc 	xorhi	zero,zero,4378
   44618:	000446bc 	xorhi	zero,zero,4378
   4461c:	000446bc 	xorhi	zero,zero,4378
   44620:	000446bc 	xorhi	zero,zero,4378
   44624:	000446bc 	xorhi	zero,zero,4378
   44628:	000446bc 	xorhi	zero,zero,4378
   4462c:	00044c4c 	andi	zero,zero,4401
   44630:	000448d4 	movui	zero,4387
   44634:	000446bc 	xorhi	zero,zero,4378
   44638:	000446bc 	xorhi	zero,zero,4378
   4463c:	000446bc 	xorhi	zero,zero,4378
   44640:	00044c40 	call	44c4 <__reset-0x3bb3c>
   44644:	000448d4 	movui	zero,4387
   44648:	000446bc 	xorhi	zero,zero,4378
   4464c:	000446bc 	xorhi	zero,zero,4378
   44650:	00044c2c 	andhi	zero,zero,4400
   44654:	000446bc 	xorhi	zero,zero,4378
   44658:	00044bfc 	xorhi	zero,zero,4399
   4465c:	000454c4 	movi	zero,4435
   44660:	00044df8 	rdprs	zero,zero,4407
   44664:	00044dec 	andhi	zero,zero,4407
   44668:	000446bc 	xorhi	zero,zero,4378
   4466c:	00044d88 	cmpgei	zero,zero,4406
   44670:	000446bc 	xorhi	zero,zero,4378
   44674:	00045460 	cmpeqi	zero,zero,4433
   44678:	000446bc 	xorhi	zero,zero,4378
   4467c:	000446bc 	xorhi	zero,zero,4378
   44680:	000454cc 	andi	zero,zero,4435
   44684:	0023883a 	mov	r17,zero
   44688:	113ff404 	addi	r4,r2,-48
   4468c:	880690ba 	slli	r3,r17,2
   44690:	a0800007 	ldb	r2,0(r20)
   44694:	a5000044 	addi	r20,r20,1
   44698:	1c47883a 	add	r3,r3,r17
   4469c:	18c7883a 	add	r3,r3,r3
   446a0:	20e3883a 	add	r17,r4,r3
   446a4:	113ff404 	addi	r4,r2,-48
   446a8:	20c002b0 	cmpltui	r3,r4,10
   446ac:	183ff71e 	bne	r3,zero,4468c <___vfiprintf_internal_r+0x298>
   446b0:	10fff804 	addi	r3,r2,-32
   446b4:	19001668 	cmpgeui	r4,r3,89
   446b8:	203f9426 	beq	r4,zero,4450c <___vfiprintf_internal_r+0x118>
   446bc:	10005826 	beq	r2,zero,44820 <___vfiprintf_internal_r+0x42c>
   446c0:	d8800d05 	stb	r2,52(sp)
   446c4:	d8000945 	stb	zero,37(sp)
   446c8:	05800044 	movi	r22,1
   446cc:	05400044 	movi	r21,1
   446d0:	df000d04 	addi	fp,sp,52
   446d4:	0013883a 	mov	r9,zero
   446d8:	8340008c 	andi	r13,r16,2
   446dc:	68000126 	beq	r13,zero,446e4 <___vfiprintf_internal_r+0x2f0>
   446e0:	b5800084 	addi	r22,r22,2
   446e4:	d9000b17 	ldw	r4,44(sp)
   446e8:	8300210c 	andi	r12,r16,132
   446ec:	d8800c17 	ldw	r2,48(sp)
   446f0:	21800044 	addi	r6,r4,1
   446f4:	300b883a 	mov	r5,r6
   446f8:	6000021e 	bne	r12,zero,44704 <___vfiprintf_internal_r+0x310>
   446fc:	8d87c83a 	sub	r3,r17,r22
   44700:	00c29216 	blt	zero,r3,4514c <___vfiprintf_internal_r+0xd58>
   44704:	d8c00947 	ldb	r3,37(sp)
   44708:	18000c26 	beq	r3,zero,4473c <___vfiprintf_internal_r+0x348>
   4470c:	d8c00944 	addi	r3,sp,37
   44710:	10800044 	addi	r2,r2,1
   44714:	40c00015 	stw	r3,0(r8)
   44718:	00c00044 	movi	r3,1
   4471c:	40c00115 	stw	r3,4(r8)
   44720:	d8800c15 	stw	r2,48(sp)
   44724:	d9400b15 	stw	r5,44(sp)
   44728:	28c00208 	cmpgei	r3,r5,8
   4472c:	18026b1e 	bne	r3,zero,450dc <___vfiprintf_internal_r+0xce8>
   44730:	2809883a 	mov	r4,r5
   44734:	42000204 	addi	r8,r8,8
   44738:	29400044 	addi	r5,r5,1
   4473c:	68001726 	beq	r13,zero,4479c <___vfiprintf_internal_r+0x3a8>
   44740:	d8c00984 	addi	r3,sp,38
   44744:	10800084 	addi	r2,r2,2
   44748:	40c00015 	stw	r3,0(r8)
   4474c:	00c00084 	movi	r3,2
   44750:	40c00115 	stw	r3,4(r8)
   44754:	d8800c15 	stw	r2,48(sp)
   44758:	d9400b15 	stw	r5,44(sp)
   4475c:	28c00208 	cmpgei	r3,r5,8
   44760:	18027626 	beq	r3,zero,4513c <___vfiprintf_internal_r+0xd48>
   44764:	1002f926 	beq	r2,zero,4534c <___vfiprintf_internal_r+0xf58>
   44768:	d9000017 	ldw	r4,0(sp)
   4476c:	d9800a04 	addi	r6,sp,40
   44770:	900b883a 	mov	r5,r18
   44774:	da400415 	stw	r9,16(sp)
   44778:	db000215 	stw	r12,8(sp)
   4477c:	00442e80 	call	442e8 <__sprint_r.part.0>
   44780:	1000291e 	bne	r2,zero,44828 <___vfiprintf_internal_r+0x434>
   44784:	d9000b17 	ldw	r4,44(sp)
   44788:	d8800c17 	ldw	r2,48(sp)
   4478c:	da400417 	ldw	r9,16(sp)
   44790:	db000217 	ldw	r12,8(sp)
   44794:	9811883a 	mov	r8,r19
   44798:	21400044 	addi	r5,r4,1
   4479c:	63002018 	cmpnei	r12,r12,128
   447a0:	6001d226 	beq	r12,zero,44eec <___vfiprintf_internal_r+0xaf8>
   447a4:	4d53c83a 	sub	r9,r9,r21
   447a8:	02421016 	blt	zero,r9,44fec <___vfiprintf_internal_r+0xbf8>
   447ac:	a885883a 	add	r2,r21,r2
   447b0:	d9400b15 	stw	r5,44(sp)
   447b4:	47000015 	stw	fp,0(r8)
   447b8:	45400115 	stw	r21,4(r8)
   447bc:	d8800c15 	stw	r2,48(sp)
   447c0:	29400208 	cmpgei	r5,r5,8
   447c4:	2801c326 	beq	r5,zero,44ed4 <___vfiprintf_internal_r+0xae0>
   447c8:	10007126 	beq	r2,zero,44990 <___vfiprintf_internal_r+0x59c>
   447cc:	d9000017 	ldw	r4,0(sp)
   447d0:	d9800a04 	addi	r6,sp,40
   447d4:	900b883a 	mov	r5,r18
   447d8:	00442e80 	call	442e8 <__sprint_r.part.0>
   447dc:	1000121e 	bne	r2,zero,44828 <___vfiprintf_internal_r+0x434>
   447e0:	d8800c17 	ldw	r2,48(sp)
   447e4:	9811883a 	mov	r8,r19
   447e8:	8400010c 	andi	r16,r16,4
   447ec:	80000226 	beq	r16,zero,447f8 <___vfiprintf_internal_r+0x404>
   447f0:	8da1c83a 	sub	r16,r17,r22
   447f4:	04006c16 	blt	zero,r16,449a8 <___vfiprintf_internal_r+0x5b4>
   447f8:	8d80010e 	bge	r17,r22,44800 <___vfiprintf_internal_r+0x40c>
   447fc:	b023883a 	mov	r17,r22
   44800:	d8c00117 	ldw	r3,4(sp)
   44804:	1c47883a 	add	r3,r3,r17
   44808:	d8c00115 	stw	r3,4(sp)
   4480c:	1002291e 	bne	r2,zero,450b4 <___vfiprintf_internal_r+0xcc0>
   44810:	a0800007 	ldb	r2,0(r20)
   44814:	d8000b15 	stw	zero,44(sp)
   44818:	9811883a 	mov	r8,r19
   4481c:	103f231e 	bne	r2,zero,444ac <___vfiprintf_internal_r+0xb8>
   44820:	d8800c17 	ldw	r2,48(sp)
   44824:	10036c1e 	bne	r2,zero,455d8 <___vfiprintf_internal_r+0x11e4>
   44828:	9080030b 	ldhu	r2,12(r18)
   4482c:	1080100c 	andi	r2,r2,64
   44830:	10037d1e 	bne	r2,zero,45628 <___vfiprintf_internal_r+0x1234>
   44834:	d8800117 	ldw	r2,4(sp)
   44838:	dfc03017 	ldw	ra,192(sp)
   4483c:	df002f17 	ldw	fp,188(sp)
   44840:	ddc02e17 	ldw	r23,184(sp)
   44844:	dd802d17 	ldw	r22,180(sp)
   44848:	dd402c17 	ldw	r21,176(sp)
   4484c:	dd002b17 	ldw	r20,172(sp)
   44850:	dcc02a17 	ldw	r19,168(sp)
   44854:	dc802917 	ldw	r18,164(sp)
   44858:	dc402817 	ldw	r17,160(sp)
   4485c:	dc002717 	ldw	r16,156(sp)
   44860:	dec03104 	addi	sp,sp,196
   44864:	f800283a 	ret
   44868:	d9000017 	ldw	r4,0(sp)
   4486c:	900b883a 	mov	r5,r18
   44870:	00464780 	call	46478 <__swsetup_r>
   44874:	10036c1e 	bne	r2,zero,45628 <___vfiprintf_internal_r+0x1234>
   44878:	9080030b 	ldhu	r2,12(r18)
   4487c:	1080068c 	andi	r2,r2,26
   44880:	10800298 	cmpnei	r2,r2,10
   44884:	103efe1e 	bne	r2,zero,44480 <___vfiprintf_internal_r+0x8c>
   44888:	9080038f 	ldh	r2,14(r18)
   4488c:	103efc16 	blt	r2,zero,44480 <___vfiprintf_internal_r+0x8c>
   44890:	d9c00317 	ldw	r7,12(sp)
   44894:	d9000017 	ldw	r4,0(sp)
   44898:	a00d883a 	mov	r6,r20
   4489c:	900b883a 	mov	r5,r18
   448a0:	dfc03017 	ldw	ra,192(sp)
   448a4:	df002f17 	ldw	fp,188(sp)
   448a8:	ddc02e17 	ldw	r23,184(sp)
   448ac:	dd802d17 	ldw	r22,180(sp)
   448b0:	dd402c17 	ldw	r21,176(sp)
   448b4:	dd002b17 	ldw	r20,172(sp)
   448b8:	dcc02a17 	ldw	r19,168(sp)
   448bc:	dc802917 	ldw	r18,164(sp)
   448c0:	dc402817 	ldw	r17,160(sp)
   448c4:	dc002717 	ldw	r16,156(sp)
   448c8:	dec03104 	addi	sp,sp,196
   448cc:	00456ac1 	jmpi	456ac <__sbprintf>
   448d0:	84000414 	ori	r16,r16,16
   448d4:	8080080c 	andi	r2,r16,32
   448d8:	10006626 	beq	r2,zero,44a74 <___vfiprintf_internal_r+0x680>
   448dc:	d8c00317 	ldw	r3,12(sp)
   448e0:	18800117 	ldw	r2,4(r3)
   448e4:	1d800017 	ldw	r22,0(r3)
   448e8:	18c00204 	addi	r3,r3,8
   448ec:	d8c00315 	stw	r3,12(sp)
   448f0:	102b883a 	mov	r21,r2
   448f4:	10006d16 	blt	r2,zero,44aac <___vfiprintf_internal_r+0x6b8>
   448f8:	48bfffd8 	cmpnei	r2,r9,-1
   448fc:	db000943 	ldbu	r12,37(sp)
   44900:	10007526 	beq	r2,zero,44ad8 <___vfiprintf_internal_r+0x6e4>
   44904:	00ffdfc4 	movi	r3,-129
   44908:	b544b03a 	or	r2,r22,r21
   4490c:	80e0703a 	and	r16,r16,r3
   44910:	1000711e 	bne	r2,zero,44ad8 <___vfiprintf_internal_r+0x6e4>
   44914:	4803471e 	bne	r9,zero,45634 <___vfiprintf_internal_r+0x1240>
   44918:	002d883a 	mov	r22,zero
   4491c:	002b883a 	mov	r21,zero
   44920:	9839883a 	mov	fp,r19
   44924:	00007606 	br	44b00 <___vfiprintf_internal_r+0x70c>
   44928:	8523c83a 	sub	r17,r16,r20
   4492c:	853fbc26 	beq	r16,r20,44820 <___vfiprintf_internal_r+0x42c>
   44930:	d8c00c17 	ldw	r3,48(sp)
   44934:	d8800b17 	ldw	r2,44(sp)
   44938:	45000015 	stw	r20,0(r8)
   4493c:	88c7883a 	add	r3,r17,r3
   44940:	10800044 	addi	r2,r2,1
   44944:	d8800b15 	stw	r2,44(sp)
   44948:	44400115 	stw	r17,4(r8)
   4494c:	d8c00c15 	stw	r3,48(sp)
   44950:	10800208 	cmpgei	r2,r2,8
   44954:	1000061e 	bne	r2,zero,44970 <___vfiprintf_internal_r+0x57c>
   44958:	42000204 	addi	r8,r8,8
   4495c:	d8c00117 	ldw	r3,4(sp)
   44960:	80800003 	ldbu	r2,0(r16)
   44964:	1c47883a 	add	r3,r3,r17
   44968:	d8c00115 	stw	r3,4(sp)
   4496c:	003ed906 	br	444d4 <___vfiprintf_internal_r+0xe0>
   44970:	18025526 	beq	r3,zero,452c8 <___vfiprintf_internal_r+0xed4>
   44974:	d9000017 	ldw	r4,0(sp)
   44978:	d9800a04 	addi	r6,sp,40
   4497c:	900b883a 	mov	r5,r18
   44980:	00442e80 	call	442e8 <__sprint_r.part.0>
   44984:	103fa81e 	bne	r2,zero,44828 <___vfiprintf_internal_r+0x434>
   44988:	9811883a 	mov	r8,r19
   4498c:	003ff306 	br	4495c <___vfiprintf_internal_r+0x568>
   44990:	d8000b15 	stw	zero,44(sp)
   44994:	8400010c 	andi	r16,r16,4
   44998:	80022726 	beq	r16,zero,45238 <___vfiprintf_internal_r+0xe44>
   4499c:	8da1c83a 	sub	r16,r17,r22
   449a0:	0402250e 	bge	zero,r16,45238 <___vfiprintf_internal_r+0xe44>
   449a4:	9811883a 	mov	r8,r19
   449a8:	80c00450 	cmplti	r3,r16,17
   449ac:	d9000b17 	ldw	r4,44(sp)
   449b0:	01c00174 	movhi	r7,5
   449b4:	1803141e 	bne	r3,zero,45608 <___vfiprintf_internal_r+0x1214>
   449b8:	39c1b604 	addi	r7,r7,1752
   449bc:	05400404 	movi	r21,16
   449c0:	00000606 	br	449dc <___vfiprintf_internal_r+0x5e8>
   449c4:	21400084 	addi	r5,r4,2
   449c8:	42000204 	addi	r8,r8,8
   449cc:	1809883a 	mov	r4,r3
   449d0:	843ffc04 	addi	r16,r16,-16
   449d4:	80c00448 	cmpgei	r3,r16,17
   449d8:	18001726 	beq	r3,zero,44a38 <___vfiprintf_internal_r+0x644>
   449dc:	20c00044 	addi	r3,r4,1
   449e0:	10800404 	addi	r2,r2,16
   449e4:	41c00015 	stw	r7,0(r8)
   449e8:	45400115 	stw	r21,4(r8)
   449ec:	d8800c15 	stw	r2,48(sp)
   449f0:	d8c00b15 	stw	r3,44(sp)
   449f4:	19400208 	cmpgei	r5,r3,8
   449f8:	283ff226 	beq	r5,zero,449c4 <___vfiprintf_internal_r+0x5d0>
   449fc:	d9000017 	ldw	r4,0(sp)
   44a00:	d9800a04 	addi	r6,sp,40
   44a04:	900b883a 	mov	r5,r18
   44a08:	10013426 	beq	r2,zero,44edc <___vfiprintf_internal_r+0xae8>
   44a0c:	d9c00215 	stw	r7,8(sp)
   44a10:	00442e80 	call	442e8 <__sprint_r.part.0>
   44a14:	103f841e 	bne	r2,zero,44828 <___vfiprintf_internal_r+0x434>
   44a18:	d9000b17 	ldw	r4,44(sp)
   44a1c:	843ffc04 	addi	r16,r16,-16
   44a20:	80c00448 	cmpgei	r3,r16,17
   44a24:	d8800c17 	ldw	r2,48(sp)
   44a28:	d9c00217 	ldw	r7,8(sp)
   44a2c:	9811883a 	mov	r8,r19
   44a30:	21400044 	addi	r5,r4,1
   44a34:	183fe91e 	bne	r3,zero,449dc <___vfiprintf_internal_r+0x5e8>
   44a38:	1405883a 	add	r2,r2,r16
   44a3c:	d9400b15 	stw	r5,44(sp)
   44a40:	41c00015 	stw	r7,0(r8)
   44a44:	44000115 	stw	r16,4(r8)
   44a48:	d8800c15 	stw	r2,48(sp)
   44a4c:	29400210 	cmplti	r5,r5,8
   44a50:	283f691e 	bne	r5,zero,447f8 <___vfiprintf_internal_r+0x404>
   44a54:	1001f826 	beq	r2,zero,45238 <___vfiprintf_internal_r+0xe44>
   44a58:	d9000017 	ldw	r4,0(sp)
   44a5c:	d9800a04 	addi	r6,sp,40
   44a60:	900b883a 	mov	r5,r18
   44a64:	00442e80 	call	442e8 <__sprint_r.part.0>
   44a68:	103f6f1e 	bne	r2,zero,44828 <___vfiprintf_internal_r+0x434>
   44a6c:	d8800c17 	ldw	r2,48(sp)
   44a70:	003f6106 	br	447f8 <___vfiprintf_internal_r+0x404>
   44a74:	d8c00317 	ldw	r3,12(sp)
   44a78:	8080040c 	andi	r2,r16,16
   44a7c:	1d800017 	ldw	r22,0(r3)
   44a80:	18c00104 	addi	r3,r3,4
   44a84:	d8c00315 	stw	r3,12(sp)
   44a88:	1000231e 	bne	r2,zero,44b18 <___vfiprintf_internal_r+0x724>
   44a8c:	8080100c 	andi	r2,r16,64
   44a90:	10002126 	beq	r2,zero,44b18 <___vfiprintf_internal_r+0x724>
   44a94:	b5bfffcc 	andi	r22,r22,65535
   44a98:	b5a0001c 	xori	r22,r22,32768
   44a9c:	b5a00004 	addi	r22,r22,-32768
   44aa0:	b02bd7fa 	srai	r21,r22,31
   44aa4:	a805883a 	mov	r2,r21
   44aa8:	103f930e 	bge	r2,zero,448f8 <___vfiprintf_internal_r+0x504>
   44aac:	00800b44 	movi	r2,45
   44ab0:	b006c03a 	cmpne	r3,r22,zero
   44ab4:	056bc83a 	sub	r21,zero,r21
   44ab8:	d8800945 	stb	r2,37(sp)
   44abc:	48bfffd8 	cmpnei	r2,r9,-1
   44ac0:	a8ebc83a 	sub	r21,r21,r3
   44ac4:	05adc83a 	sub	r22,zero,r22
   44ac8:	10000226 	beq	r2,zero,44ad4 <___vfiprintf_internal_r+0x6e0>
   44acc:	00bfdfc4 	movi	r2,-129
   44ad0:	80a0703a 	and	r16,r16,r2
   44ad4:	03000b44 	movi	r12,45
   44ad8:	a800d71e 	bne	r21,zero,44e38 <___vfiprintf_internal_r+0xa44>
   44adc:	b08002a8 	cmpgeui	r2,r22,10
   44ae0:	1000d51e 	bne	r2,zero,44e38 <___vfiprintf_internal_r+0xa44>
   44ae4:	b5800c04 	addi	r22,r22,48
   44ae8:	dd8016c5 	stb	r22,91(sp)
   44aec:	482d883a 	mov	r22,r9
   44af0:	02400116 	blt	zero,r9,44af8 <___vfiprintf_internal_r+0x704>
   44af4:	05800044 	movi	r22,1
   44af8:	05400044 	movi	r21,1
   44afc:	df0016c4 	addi	fp,sp,91
   44b00:	63003fcc 	andi	r12,r12,255
   44b04:	6300201c 	xori	r12,r12,128
   44b08:	633fe004 	addi	r12,r12,-128
   44b0c:	603ef226 	beq	r12,zero,446d8 <___vfiprintf_internal_r+0x2e4>
   44b10:	b5800044 	addi	r22,r22,1
   44b14:	003ef006 	br	446d8 <___vfiprintf_internal_r+0x2e4>
   44b18:	b02bd7fa 	srai	r21,r22,31
   44b1c:	a805883a 	mov	r2,r21
   44b20:	003f7406 	br	448f4 <___vfiprintf_internal_r+0x500>
   44b24:	d8800317 	ldw	r2,12(sp)
   44b28:	14400017 	ldw	r17,0(r2)
   44b2c:	17000104 	addi	fp,r2,4
   44b30:	8802250e 	bge	r17,zero,453c8 <___vfiprintf_internal_r+0xfd4>
   44b34:	0463c83a 	sub	r17,zero,r17
   44b38:	df000315 	stw	fp,12(sp)
   44b3c:	a0800007 	ldb	r2,0(r20)
   44b40:	84000114 	ori	r16,r16,4
   44b44:	003e6d06 	br	444fc <___vfiprintf_internal_r+0x108>
   44b48:	a0800007 	ldb	r2,0(r20)
   44b4c:	a0c00044 	addi	r3,r20,1
   44b50:	11000aa0 	cmpeqi	r4,r2,42
   44b54:	2002bc1e 	bne	r4,zero,45648 <___vfiprintf_internal_r+0x1254>
   44b58:	113ff404 	addi	r4,r2,-48
   44b5c:	214002b0 	cmpltui	r5,r4,10
   44b60:	1829883a 	mov	r20,r3
   44b64:	0013883a 	mov	r9,zero
   44b68:	283e6526 	beq	r5,zero,44500 <___vfiprintf_internal_r+0x10c>
   44b6c:	480690ba 	slli	r3,r9,2
   44b70:	a0800007 	ldb	r2,0(r20)
   44b74:	a5000044 	addi	r20,r20,1
   44b78:	1a47883a 	add	r3,r3,r9
   44b7c:	18c7883a 	add	r3,r3,r3
   44b80:	1913883a 	add	r9,r3,r4
   44b84:	113ff404 	addi	r4,r2,-48
   44b88:	20c002b0 	cmpltui	r3,r4,10
   44b8c:	183ff71e 	bne	r3,zero,44b6c <___vfiprintf_internal_r+0x778>
   44b90:	003e5b06 	br	44500 <___vfiprintf_internal_r+0x10c>
   44b94:	a0800007 	ldb	r2,0(r20)
   44b98:	84002014 	ori	r16,r16,128
   44b9c:	003e5706 	br	444fc <___vfiprintf_internal_r+0x108>
   44ba0:	00c00ac4 	movi	r3,43
   44ba4:	a0800007 	ldb	r2,0(r20)
   44ba8:	d8c00945 	stb	r3,37(sp)
   44bac:	003e5306 	br	444fc <___vfiprintf_internal_r+0x108>
   44bb0:	a0800007 	ldb	r2,0(r20)
   44bb4:	84000054 	ori	r16,r16,1
   44bb8:	003e5006 	br	444fc <___vfiprintf_internal_r+0x108>
   44bbc:	d8c00947 	ldb	r3,37(sp)
   44bc0:	a0800003 	ldbu	r2,0(r20)
   44bc4:	1800091e 	bne	r3,zero,44bec <___vfiprintf_internal_r+0x7f8>
   44bc8:	10803fcc 	andi	r2,r2,255
   44bcc:	00c00804 	movi	r3,32
   44bd0:	1080201c 	xori	r2,r2,128
   44bd4:	d8c00945 	stb	r3,37(sp)
   44bd8:	10bfe004 	addi	r2,r2,-128
   44bdc:	003e4706 	br	444fc <___vfiprintf_internal_r+0x108>
   44be0:	a0800043 	ldbu	r2,1(r20)
   44be4:	84000814 	ori	r16,r16,32
   44be8:	a5000044 	addi	r20,r20,1
   44bec:	10803fcc 	andi	r2,r2,255
   44bf0:	1080201c 	xori	r2,r2,128
   44bf4:	10bfe004 	addi	r2,r2,-128
   44bf8:	003e4006 	br	444fc <___vfiprintf_internal_r+0x108>
   44bfc:	8080080c 	andi	r2,r16,32
   44c00:	1001fb26 	beq	r2,zero,453f0 <___vfiprintf_internal_r+0xffc>
   44c04:	d9000117 	ldw	r4,4(sp)
   44c08:	d8800317 	ldw	r2,12(sp)
   44c0c:	2007d7fa 	srai	r3,r4,31
   44c10:	10800017 	ldw	r2,0(r2)
   44c14:	11000015 	stw	r4,0(r2)
   44c18:	10c00115 	stw	r3,4(r2)
   44c1c:	d8800317 	ldw	r2,12(sp)
   44c20:	10800104 	addi	r2,r2,4
   44c24:	d8800315 	stw	r2,12(sp)
   44c28:	003e1e06 	br	444a4 <___vfiprintf_internal_r+0xb0>
   44c2c:	a0800007 	ldb	r2,0(r20)
   44c30:	10c01b18 	cmpnei	r3,r2,108
   44c34:	183fea26 	beq	r3,zero,44be0 <___vfiprintf_internal_r+0x7ec>
   44c38:	84000414 	ori	r16,r16,16
   44c3c:	003e2f06 	br	444fc <___vfiprintf_internal_r+0x108>
   44c40:	a0800007 	ldb	r2,0(r20)
   44c44:	84001014 	ori	r16,r16,64
   44c48:	003e2c06 	br	444fc <___vfiprintf_internal_r+0x108>
   44c4c:	d8c00317 	ldw	r3,12(sp)
   44c50:	d8000945 	stb	zero,37(sp)
   44c54:	05800044 	movi	r22,1
   44c58:	18800017 	ldw	r2,0(r3)
   44c5c:	18c00104 	addi	r3,r3,4
   44c60:	d8c00315 	stw	r3,12(sp)
   44c64:	d8800d05 	stb	r2,52(sp)
   44c68:	05400044 	movi	r21,1
   44c6c:	df000d04 	addi	fp,sp,52
   44c70:	003e9806 	br	446d4 <___vfiprintf_internal_r+0x2e0>
   44c74:	80800414 	ori	r2,r16,16
   44c78:	10c0080c 	andi	r3,r2,32
   44c7c:	18019426 	beq	r3,zero,452d0 <___vfiprintf_internal_r+0xedc>
   44c80:	d8c00317 	ldw	r3,12(sp)
   44c84:	d8000945 	stb	zero,37(sp)
   44c88:	1d800017 	ldw	r22,0(r3)
   44c8c:	1d400117 	ldw	r21,4(r3)
   44c90:	18c00204 	addi	r3,r3,8
   44c94:	d8c00315 	stw	r3,12(sp)
   44c98:	48ffffd8 	cmpnei	r3,r9,-1
   44c9c:	18019926 	beq	r3,zero,45304 <___vfiprintf_internal_r+0xf10>
   44ca0:	00c00044 	movi	r3,1
   44ca4:	043fdfc4 	movi	r16,-129
   44ca8:	b548b03a 	or	r4,r22,r21
   44cac:	1420703a 	and	r16,r2,r16
   44cb0:	2000191e 	bne	r4,zero,44d18 <___vfiprintf_internal_r+0x924>
   44cb4:	4802291e 	bne	r9,zero,4555c <___vfiprintf_internal_r+0x1168>
   44cb8:	1801bf1e 	bne	r3,zero,453b8 <___vfiprintf_internal_r+0xfc4>
   44cbc:	1540004c 	andi	r21,r2,1
   44cc0:	a801c426 	beq	r21,zero,453d4 <___vfiprintf_internal_r+0xfe0>
   44cc4:	00800c04 	movi	r2,48
   44cc8:	d88016c5 	stb	r2,91(sp)
   44ccc:	a82d883a 	mov	r22,r21
   44cd0:	df0016c4 	addi	fp,sp,91
   44cd4:	003e8006 	br	446d8 <___vfiprintf_internal_r+0x2e4>
   44cd8:	80800414 	ori	r2,r16,16
   44cdc:	10c0080c 	andi	r3,r2,32
   44ce0:	18018b26 	beq	r3,zero,45310 <___vfiprintf_internal_r+0xf1c>
   44ce4:	d8c00317 	ldw	r3,12(sp)
   44ce8:	d8000945 	stb	zero,37(sp)
   44cec:	1d800017 	ldw	r22,0(r3)
   44cf0:	1d400117 	ldw	r21,4(r3)
   44cf4:	18c00204 	addi	r3,r3,8
   44cf8:	d8c00315 	stw	r3,12(sp)
   44cfc:	48ffffd8 	cmpnei	r3,r9,-1
   44d00:	18019026 	beq	r3,zero,45344 <___vfiprintf_internal_r+0xf50>
   44d04:	043fdfc4 	movi	r16,-129
   44d08:	b548b03a 	or	r4,r22,r21
   44d0c:	0007883a 	mov	r3,zero
   44d10:	1420703a 	and	r16,r2,r16
   44d14:	203fe726 	beq	r4,zero,44cb4 <___vfiprintf_internal_r+0x8c0>
   44d18:	18800060 	cmpeqi	r2,r3,1
   44d1c:	10025a1e 	bne	r2,zero,45688 <___vfiprintf_internal_r+0x1294>
   44d20:	18c000a0 	cmpeqi	r3,r3,2
   44d24:	18014b1e 	bne	r3,zero,45254 <___vfiprintf_internal_r+0xe60>
   44d28:	9839883a 	mov	fp,r19
   44d2c:	a808977a 	slli	r4,r21,29
   44d30:	b006d0fa 	srli	r3,r22,3
   44d34:	a82ad0fa 	srli	r21,r21,3
   44d38:	b08001cc 	andi	r2,r22,7
   44d3c:	10800c04 	addi	r2,r2,48
   44d40:	20ecb03a 	or	r22,r4,r3
   44d44:	e0bfffc5 	stb	r2,-1(fp)
   44d48:	b546b03a 	or	r3,r22,r21
   44d4c:	e00b883a 	mov	r5,fp
   44d50:	e73fffc4 	addi	fp,fp,-1
   44d54:	183ff51e 	bne	r3,zero,44d2c <___vfiprintf_internal_r+0x938>
   44d58:	80c0004c 	andi	r3,r16,1
   44d5c:	18014a26 	beq	r3,zero,45288 <___vfiprintf_internal_r+0xe94>
   44d60:	10800c18 	cmpnei	r2,r2,48
   44d64:	10014826 	beq	r2,zero,45288 <___vfiprintf_internal_r+0xe94>
   44d68:	297fff84 	addi	r5,r5,-2
   44d6c:	00800c04 	movi	r2,48
   44d70:	e0bfffc5 	stb	r2,-1(fp)
   44d74:	996bc83a 	sub	r21,r19,r5
   44d78:	482d883a 	mov	r22,r9
   44d7c:	4d41a916 	blt	r9,r21,45424 <___vfiprintf_internal_r+0x1030>
   44d80:	2839883a 	mov	fp,r5
   44d84:	003e5406 	br	446d8 <___vfiprintf_internal_r+0x2e4>
   44d88:	d8800317 	ldw	r2,12(sp)
   44d8c:	d8000945 	stb	zero,37(sp)
   44d90:	17000017 	ldw	fp,0(r2)
   44d94:	10c00104 	addi	r3,r2,4
   44d98:	e001f926 	beq	fp,zero,45580 <___vfiprintf_internal_r+0x118c>
   44d9c:	48bfffe0 	cmpeqi	r2,r9,-1
   44da0:	1001a31e 	bne	r2,zero,45430 <___vfiprintf_internal_r+0x103c>
   44da4:	480d883a 	mov	r6,r9
   44da8:	000b883a 	mov	r5,zero
   44dac:	e009883a 	mov	r4,fp
   44db0:	d8c00415 	stw	r3,16(sp)
   44db4:	da000315 	stw	r8,12(sp)
   44db8:	da400215 	stw	r9,8(sp)
   44dbc:	00467bc0 	call	467bc <memchr>
   44dc0:	da400217 	ldw	r9,8(sp)
   44dc4:	da000317 	ldw	r8,12(sp)
   44dc8:	d8c00417 	ldw	r3,16(sp)
   44dcc:	10020726 	beq	r2,zero,455ec <___vfiprintf_internal_r+0x11f8>
   44dd0:	172bc83a 	sub	r21,r2,fp
   44dd4:	db000943 	ldbu	r12,37(sp)
   44dd8:	a82d883a 	mov	r22,r21
   44ddc:	a8019e16 	blt	r21,zero,45458 <___vfiprintf_internal_r+0x1064>
   44de0:	d8c00315 	stw	r3,12(sp)
   44de4:	0013883a 	mov	r9,zero
   44de8:	003f4506 	br	44b00 <___vfiprintf_internal_r+0x70c>
   44dec:	a0800007 	ldb	r2,0(r20)
   44df0:	84000814 	ori	r16,r16,32
   44df4:	003dc106 	br	444fc <___vfiprintf_internal_r+0x108>
   44df8:	d9000317 	ldw	r4,12(sp)
   44dfc:	00de0c04 	movi	r3,30768
   44e00:	01400174 	movhi	r5,5
   44e04:	d8c0098d 	sth	r3,38(sp)
   44e08:	25800017 	ldw	r22,0(r4)
   44e0c:	20c00104 	addi	r3,r4,4
   44e10:	d8c00315 	stw	r3,12(sp)
   44e14:	28c1a204 	addi	r3,r5,1672
   44e18:	002b883a 	mov	r21,zero
   44e1c:	80800094 	ori	r2,r16,2
   44e20:	d8c00515 	stw	r3,20(sp)
   44e24:	d8000945 	stb	zero,37(sp)
   44e28:	48ffffd8 	cmpnei	r3,r9,-1
   44e2c:	18010826 	beq	r3,zero,45250 <___vfiprintf_internal_r+0xe5c>
   44e30:	00c00084 	movi	r3,2
   44e34:	003f9b06 	br	44ca4 <___vfiprintf_internal_r+0x8b0>
   44e38:	9839883a 	mov	fp,r19
   44e3c:	b009883a 	mov	r4,r22
   44e40:	a80b883a 	mov	r5,r21
   44e44:	01800284 	movi	r6,10
   44e48:	000f883a 	mov	r7,zero
   44e4c:	db000615 	stw	r12,24(sp)
   44e50:	da000415 	stw	r8,16(sp)
   44e54:	da400215 	stw	r9,8(sp)
   44e58:	004c43c0 	call	4c43c <__umoddi3>
   44e5c:	10800c04 	addi	r2,r2,48
   44e60:	b009883a 	mov	r4,r22
   44e64:	a80b883a 	mov	r5,r21
   44e68:	e0bfffc5 	stb	r2,-1(fp)
   44e6c:	01800284 	movi	r6,10
   44e70:	000f883a 	mov	r7,zero
   44e74:	004be640 	call	4be64 <__udivdi3>
   44e78:	a809883a 	mov	r4,r21
   44e7c:	b00b883a 	mov	r5,r22
   44e80:	da400217 	ldw	r9,8(sp)
   44e84:	da000417 	ldw	r8,16(sp)
   44e88:	db000617 	ldw	r12,24(sp)
   44e8c:	e73fffc4 	addi	fp,fp,-1
   44e90:	102d883a 	mov	r22,r2
   44e94:	182b883a 	mov	r21,r3
   44e98:	203fe81e 	bne	r4,zero,44e3c <___vfiprintf_internal_r+0xa48>
   44e9c:	294002a8 	cmpgeui	r5,r5,10
   44ea0:	283fe61e 	bne	r5,zero,44e3c <___vfiprintf_internal_r+0xa48>
   44ea4:	9f2bc83a 	sub	r21,r19,fp
   44ea8:	482d883a 	mov	r22,r9
   44eac:	4d7f140e 	bge	r9,r21,44b00 <___vfiprintf_internal_r+0x70c>
   44eb0:	a82d883a 	mov	r22,r21
   44eb4:	003f1206 	br	44b00 <___vfiprintf_internal_r+0x70c>
   44eb8:	00c00044 	movi	r3,1
   44ebc:	a805883a 	mov	r2,r21
   44ec0:	df001715 	stw	fp,92(sp)
   44ec4:	dd401815 	stw	r21,96(sp)
   44ec8:	dd400c15 	stw	r21,48(sp)
   44ecc:	d8c00b15 	stw	r3,44(sp)
   44ed0:	9811883a 	mov	r8,r19
   44ed4:	42000204 	addi	r8,r8,8
   44ed8:	003e4306 	br	447e8 <___vfiprintf_internal_r+0x3f4>
   44edc:	01400044 	movi	r5,1
   44ee0:	0009883a 	mov	r4,zero
   44ee4:	9811883a 	mov	r8,r19
   44ee8:	003eb906 	br	449d0 <___vfiprintf_internal_r+0x5dc>
   44eec:	8d87c83a 	sub	r3,r17,r22
   44ef0:	00fe2c0e 	bge	zero,r3,447a4 <___vfiprintf_internal_r+0x3b0>
   44ef4:	19800450 	cmplti	r6,r3,17
   44ef8:	3001c61e 	bne	r6,zero,45614 <___vfiprintf_internal_r+0x1220>
   44efc:	01400174 	movhi	r5,5
   44f00:	2941b204 	addi	r5,r5,1736
   44f04:	d9400415 	stw	r5,16(sp)
   44f08:	01c00404 	movi	r7,16
   44f0c:	00000606 	br	44f28 <___vfiprintf_internal_r+0xb34>
   44f10:	21800084 	addi	r6,r4,2
   44f14:	42000204 	addi	r8,r8,8
   44f18:	2809883a 	mov	r4,r5
   44f1c:	18fffc04 	addi	r3,r3,-16
   44f20:	19400448 	cmpgei	r5,r3,17
   44f24:	28001b26 	beq	r5,zero,44f94 <___vfiprintf_internal_r+0xba0>
   44f28:	d9800417 	ldw	r6,16(sp)
   44f2c:	21400044 	addi	r5,r4,1
   44f30:	10800404 	addi	r2,r2,16
   44f34:	41800015 	stw	r6,0(r8)
   44f38:	41c00115 	stw	r7,4(r8)
   44f3c:	d8800c15 	stw	r2,48(sp)
   44f40:	d9400b15 	stw	r5,44(sp)
   44f44:	29800208 	cmpgei	r6,r5,8
   44f48:	303ff126 	beq	r6,zero,44f10 <___vfiprintf_internal_r+0xb1c>
   44f4c:	d9000017 	ldw	r4,0(sp)
   44f50:	d9800a04 	addi	r6,sp,40
   44f54:	900b883a 	mov	r5,r18
   44f58:	10005c26 	beq	r2,zero,450cc <___vfiprintf_internal_r+0xcd8>
   44f5c:	d8c00615 	stw	r3,24(sp)
   44f60:	da400215 	stw	r9,8(sp)
   44f64:	00442e80 	call	442e8 <__sprint_r.part.0>
   44f68:	103e2f1e 	bne	r2,zero,44828 <___vfiprintf_internal_r+0x434>
   44f6c:	d8c00617 	ldw	r3,24(sp)
   44f70:	d9000b17 	ldw	r4,44(sp)
   44f74:	d8800c17 	ldw	r2,48(sp)
   44f78:	18fffc04 	addi	r3,r3,-16
   44f7c:	19400448 	cmpgei	r5,r3,17
   44f80:	da400217 	ldw	r9,8(sp)
   44f84:	9811883a 	mov	r8,r19
   44f88:	21800044 	addi	r6,r4,1
   44f8c:	01c00404 	movi	r7,16
   44f90:	283fe51e 	bne	r5,zero,44f28 <___vfiprintf_internal_r+0xb34>
   44f94:	d9000417 	ldw	r4,16(sp)
   44f98:	10c5883a 	add	r2,r2,r3
   44f9c:	40c00115 	stw	r3,4(r8)
   44fa0:	41000015 	stw	r4,0(r8)
   44fa4:	d8800c15 	stw	r2,48(sp)
   44fa8:	d9800b15 	stw	r6,44(sp)
   44fac:	30c00208 	cmpgei	r3,r6,8
   44fb0:	18010b26 	beq	r3,zero,453e0 <___vfiprintf_internal_r+0xfec>
   44fb4:	10017e26 	beq	r2,zero,455b0 <___vfiprintf_internal_r+0x11bc>
   44fb8:	d9000017 	ldw	r4,0(sp)
   44fbc:	d9800a04 	addi	r6,sp,40
   44fc0:	900b883a 	mov	r5,r18
   44fc4:	da400215 	stw	r9,8(sp)
   44fc8:	00442e80 	call	442e8 <__sprint_r.part.0>
   44fcc:	103e161e 	bne	r2,zero,44828 <___vfiprintf_internal_r+0x434>
   44fd0:	da400217 	ldw	r9,8(sp)
   44fd4:	d9000b17 	ldw	r4,44(sp)
   44fd8:	d8800c17 	ldw	r2,48(sp)
   44fdc:	4d53c83a 	sub	r9,r9,r21
   44fe0:	9811883a 	mov	r8,r19
   44fe4:	21400044 	addi	r5,r4,1
   44fe8:	027df00e 	bge	zero,r9,447ac <___vfiprintf_internal_r+0x3b8>
   44fec:	48c00450 	cmplti	r3,r9,17
   44ff0:	18016b1e 	bne	r3,zero,455a0 <___vfiprintf_internal_r+0x11ac>
   44ff4:	ddc00415 	stw	r23,16(sp)
   44ff8:	01c00404 	movi	r7,16
   44ffc:	00000606 	br	45018 <___vfiprintf_internal_r+0xc24>
   45000:	21400084 	addi	r5,r4,2
   45004:	42000204 	addi	r8,r8,8
   45008:	1809883a 	mov	r4,r3
   4500c:	4a7ffc04 	addi	r9,r9,-16
   45010:	48c00448 	cmpgei	r3,r9,17
   45014:	18001826 	beq	r3,zero,45078 <___vfiprintf_internal_r+0xc84>
   45018:	20c00044 	addi	r3,r4,1
   4501c:	10800404 	addi	r2,r2,16
   45020:	45c00015 	stw	r23,0(r8)
   45024:	41c00115 	stw	r7,4(r8)
   45028:	d8800c15 	stw	r2,48(sp)
   4502c:	d8c00b15 	stw	r3,44(sp)
   45030:	19400208 	cmpgei	r5,r3,8
   45034:	283ff226 	beq	r5,zero,45000 <___vfiprintf_internal_r+0xc0c>
   45038:	d9000017 	ldw	r4,0(sp)
   4503c:	d9800a04 	addi	r6,sp,40
   45040:	900b883a 	mov	r5,r18
   45044:	10001726 	beq	r2,zero,450a4 <___vfiprintf_internal_r+0xcb0>
   45048:	da400215 	stw	r9,8(sp)
   4504c:	00442e80 	call	442e8 <__sprint_r.part.0>
   45050:	103df51e 	bne	r2,zero,44828 <___vfiprintf_internal_r+0x434>
   45054:	da400217 	ldw	r9,8(sp)
   45058:	d9000b17 	ldw	r4,44(sp)
   4505c:	d8800c17 	ldw	r2,48(sp)
   45060:	4a7ffc04 	addi	r9,r9,-16
   45064:	48c00448 	cmpgei	r3,r9,17
   45068:	9811883a 	mov	r8,r19
   4506c:	21400044 	addi	r5,r4,1
   45070:	01c00404 	movi	r7,16
   45074:	183fe81e 	bne	r3,zero,45018 <___vfiprintf_internal_r+0xc24>
   45078:	d8c00417 	ldw	r3,16(sp)
   4507c:	1245883a 	add	r2,r2,r9
   45080:	42400115 	stw	r9,4(r8)
   45084:	40c00015 	stw	r3,0(r8)
   45088:	d8800c15 	stw	r2,48(sp)
   4508c:	d9400b15 	stw	r5,44(sp)
   45090:	28c00208 	cmpgei	r3,r5,8
   45094:	1800811e 	bne	r3,zero,4529c <___vfiprintf_internal_r+0xea8>
   45098:	42000204 	addi	r8,r8,8
   4509c:	29400044 	addi	r5,r5,1
   450a0:	003dc206 	br	447ac <___vfiprintf_internal_r+0x3b8>
   450a4:	01400044 	movi	r5,1
   450a8:	0009883a 	mov	r4,zero
   450ac:	9811883a 	mov	r8,r19
   450b0:	003fd606 	br	4500c <___vfiprintf_internal_r+0xc18>
   450b4:	d9000017 	ldw	r4,0(sp)
   450b8:	d9800a04 	addi	r6,sp,40
   450bc:	900b883a 	mov	r5,r18
   450c0:	00442e80 	call	442e8 <__sprint_r.part.0>
   450c4:	103dd226 	beq	r2,zero,44810 <___vfiprintf_internal_r+0x41c>
   450c8:	003dd706 	br	44828 <___vfiprintf_internal_r+0x434>
   450cc:	01800044 	movi	r6,1
   450d0:	0009883a 	mov	r4,zero
   450d4:	9811883a 	mov	r8,r19
   450d8:	003f9006 	br	44f1c <___vfiprintf_internal_r+0xb28>
   450dc:	10001026 	beq	r2,zero,45120 <___vfiprintf_internal_r+0xd2c>
   450e0:	d9000017 	ldw	r4,0(sp)
   450e4:	d9800a04 	addi	r6,sp,40
   450e8:	900b883a 	mov	r5,r18
   450ec:	da400615 	stw	r9,24(sp)
   450f0:	db000415 	stw	r12,16(sp)
   450f4:	db400215 	stw	r13,8(sp)
   450f8:	00442e80 	call	442e8 <__sprint_r.part.0>
   450fc:	103dca1e 	bne	r2,zero,44828 <___vfiprintf_internal_r+0x434>
   45100:	d9000b17 	ldw	r4,44(sp)
   45104:	d8800c17 	ldw	r2,48(sp)
   45108:	da400617 	ldw	r9,24(sp)
   4510c:	db000417 	ldw	r12,16(sp)
   45110:	db400217 	ldw	r13,8(sp)
   45114:	9811883a 	mov	r8,r19
   45118:	21400044 	addi	r5,r4,1
   4511c:	003d8706 	br	4473c <___vfiprintf_internal_r+0x348>
   45120:	6800bc26 	beq	r13,zero,45414 <___vfiprintf_internal_r+0x1020>
   45124:	d8800984 	addi	r2,sp,38
   45128:	d8801715 	stw	r2,92(sp)
   4512c:	00800084 	movi	r2,2
   45130:	d8801815 	stw	r2,96(sp)
   45134:	01400044 	movi	r5,1
   45138:	9811883a 	mov	r8,r19
   4513c:	2809883a 	mov	r4,r5
   45140:	42000204 	addi	r8,r8,8
   45144:	29400044 	addi	r5,r5,1
   45148:	003d9406 	br	4479c <___vfiprintf_internal_r+0x3a8>
   4514c:	19400450 	cmplti	r5,r3,17
   45150:	01c00174 	movhi	r7,5
   45154:	2801291e 	bne	r5,zero,455fc <___vfiprintf_internal_r+0x1208>
   45158:	39c1b604 	addi	r7,r7,1752
   4515c:	03800404 	movi	r14,16
   45160:	00000706 	br	45180 <___vfiprintf_internal_r+0xd8c>
   45164:	23c00084 	addi	r15,r4,2
   45168:	42000204 	addi	r8,r8,8
   4516c:	3009883a 	mov	r4,r6
   45170:	18fffc04 	addi	r3,r3,-16
   45174:	19400448 	cmpgei	r5,r3,17
   45178:	28002026 	beq	r5,zero,451fc <___vfiprintf_internal_r+0xe08>
   4517c:	21800044 	addi	r6,r4,1
   45180:	10800404 	addi	r2,r2,16
   45184:	41c00015 	stw	r7,0(r8)
   45188:	43800115 	stw	r14,4(r8)
   4518c:	d8800c15 	stw	r2,48(sp)
   45190:	d9800b15 	stw	r6,44(sp)
   45194:	31400208 	cmpgei	r5,r6,8
   45198:	283ff226 	beq	r5,zero,45164 <___vfiprintf_internal_r+0xd70>
   4519c:	d9000017 	ldw	r4,0(sp)
   451a0:	d9800a04 	addi	r6,sp,40
   451a4:	900b883a 	mov	r5,r18
   451a8:	10001f26 	beq	r2,zero,45228 <___vfiprintf_internal_r+0xe34>
   451ac:	d9c00815 	stw	r7,32(sp)
   451b0:	d8c00715 	stw	r3,28(sp)
   451b4:	da400615 	stw	r9,24(sp)
   451b8:	db000415 	stw	r12,16(sp)
   451bc:	db400215 	stw	r13,8(sp)
   451c0:	00442e80 	call	442e8 <__sprint_r.part.0>
   451c4:	103d981e 	bne	r2,zero,44828 <___vfiprintf_internal_r+0x434>
   451c8:	d8c00717 	ldw	r3,28(sp)
   451cc:	d9000b17 	ldw	r4,44(sp)
   451d0:	d8800c17 	ldw	r2,48(sp)
   451d4:	18fffc04 	addi	r3,r3,-16
   451d8:	19400448 	cmpgei	r5,r3,17
   451dc:	d9c00817 	ldw	r7,32(sp)
   451e0:	da400617 	ldw	r9,24(sp)
   451e4:	db000417 	ldw	r12,16(sp)
   451e8:	db400217 	ldw	r13,8(sp)
   451ec:	9811883a 	mov	r8,r19
   451f0:	23c00044 	addi	r15,r4,1
   451f4:	03800404 	movi	r14,16
   451f8:	283fe01e 	bne	r5,zero,4517c <___vfiprintf_internal_r+0xd88>
   451fc:	10c5883a 	add	r2,r2,r3
   45200:	40c00115 	stw	r3,4(r8)
   45204:	41c00015 	stw	r7,0(r8)
   45208:	d8800c15 	stw	r2,48(sp)
   4520c:	dbc00b15 	stw	r15,44(sp)
   45210:	78c00208 	cmpgei	r3,r15,8
   45214:	1800511e 	bne	r3,zero,4535c <___vfiprintf_internal_r+0xf68>
   45218:	42000204 	addi	r8,r8,8
   4521c:	79400044 	addi	r5,r15,1
   45220:	7809883a 	mov	r4,r15
   45224:	003d3706 	br	44704 <___vfiprintf_internal_r+0x310>
   45228:	0009883a 	mov	r4,zero
   4522c:	03c00044 	movi	r15,1
   45230:	9811883a 	mov	r8,r19
   45234:	003fce06 	br	45170 <___vfiprintf_internal_r+0xd7c>
   45238:	8d80010e 	bge	r17,r22,45240 <___vfiprintf_internal_r+0xe4c>
   4523c:	b023883a 	mov	r17,r22
   45240:	d8800117 	ldw	r2,4(sp)
   45244:	1445883a 	add	r2,r2,r17
   45248:	d8800115 	stw	r2,4(sp)
   4524c:	003d7006 	br	44810 <___vfiprintf_internal_r+0x41c>
   45250:	1021883a 	mov	r16,r2
   45254:	9839883a 	mov	fp,r19
   45258:	d9000517 	ldw	r4,20(sp)
   4525c:	b08003cc 	andi	r2,r22,15
   45260:	a806973a 	slli	r3,r21,28
   45264:	b02cd13a 	srli	r22,r22,4
   45268:	2085883a 	add	r2,r4,r2
   4526c:	10800003 	ldbu	r2,0(r2)
   45270:	a82ad13a 	srli	r21,r21,4
   45274:	1dacb03a 	or	r22,r3,r22
   45278:	e0bfffc5 	stb	r2,-1(fp)
   4527c:	b544b03a 	or	r2,r22,r21
   45280:	e73fffc4 	addi	fp,fp,-1
   45284:	103ff41e 	bne	r2,zero,45258 <___vfiprintf_internal_r+0xe64>
   45288:	9f2bc83a 	sub	r21,r19,fp
   4528c:	482d883a 	mov	r22,r9
   45290:	4d7d110e 	bge	r9,r21,446d8 <___vfiprintf_internal_r+0x2e4>
   45294:	a82d883a 	mov	r22,r21
   45298:	003d0f06 	br	446d8 <___vfiprintf_internal_r+0x2e4>
   4529c:	103f0626 	beq	r2,zero,44eb8 <___vfiprintf_internal_r+0xac4>
   452a0:	d9000017 	ldw	r4,0(sp)
   452a4:	d9800a04 	addi	r6,sp,40
   452a8:	900b883a 	mov	r5,r18
   452ac:	00442e80 	call	442e8 <__sprint_r.part.0>
   452b0:	103d5d1e 	bne	r2,zero,44828 <___vfiprintf_internal_r+0x434>
   452b4:	d9400b17 	ldw	r5,44(sp)
   452b8:	d8800c17 	ldw	r2,48(sp)
   452bc:	9811883a 	mov	r8,r19
   452c0:	29400044 	addi	r5,r5,1
   452c4:	003d3906 	br	447ac <___vfiprintf_internal_r+0x3b8>
   452c8:	d8000b15 	stw	zero,44(sp)
   452cc:	003dae06 	br	44988 <___vfiprintf_internal_r+0x594>
   452d0:	d9000317 	ldw	r4,12(sp)
   452d4:	10c0040c 	andi	r3,r2,16
   452d8:	25800017 	ldw	r22,0(r4)
   452dc:	21000104 	addi	r4,r4,4
   452e0:	d9000315 	stw	r4,12(sp)
   452e4:	1800031e 	bne	r3,zero,452f4 <___vfiprintf_internal_r+0xf00>
   452e8:	10c0100c 	andi	r3,r2,64
   452ec:	18000126 	beq	r3,zero,452f4 <___vfiprintf_internal_r+0xf00>
   452f0:	b5bfffcc 	andi	r22,r22,65535
   452f4:	d8000945 	stb	zero,37(sp)
   452f8:	48ffffd8 	cmpnei	r3,r9,-1
   452fc:	002b883a 	mov	r21,zero
   45300:	183e671e 	bne	r3,zero,44ca0 <___vfiprintf_internal_r+0x8ac>
   45304:	1021883a 	mov	r16,r2
   45308:	0019883a 	mov	r12,zero
   4530c:	003df206 	br	44ad8 <___vfiprintf_internal_r+0x6e4>
   45310:	d9000317 	ldw	r4,12(sp)
   45314:	10c0040c 	andi	r3,r2,16
   45318:	25800017 	ldw	r22,0(r4)
   4531c:	21000104 	addi	r4,r4,4
   45320:	d9000315 	stw	r4,12(sp)
   45324:	1800031e 	bne	r3,zero,45334 <___vfiprintf_internal_r+0xf40>
   45328:	10c0100c 	andi	r3,r2,64
   4532c:	18000126 	beq	r3,zero,45334 <___vfiprintf_internal_r+0xf40>
   45330:	b5bfffcc 	andi	r22,r22,65535
   45334:	d8000945 	stb	zero,37(sp)
   45338:	48ffffd8 	cmpnei	r3,r9,-1
   4533c:	002b883a 	mov	r21,zero
   45340:	183e701e 	bne	r3,zero,44d04 <___vfiprintf_internal_r+0x910>
   45344:	1021883a 	mov	r16,r2
   45348:	003e7706 	br	44d28 <___vfiprintf_internal_r+0x934>
